(dp0
S'37.4240169:-122.167505'
p1
VCrown Quadrangle, 559 Nathan Abbott Way, Stanford, CA 94305, USA
p2
sS'37.4209088:-122.1700319'
p3
V675 Lomita Dr, Stanford, CA 94305, USA
p4
sS'37.438888:-122.1587936'
p5
V855 El Camino Real, Palo Alto, CA 94301, USA
p6
sS'37.4242496:-122.170985'
p7
V459 Lagunita Dr, Stanford, CA 94305, USA
p8
sS'37.4236525:-122.1705028'
p9
V575-615 Lagunita Dr, Stanford, CA 94305, USA
p10
sS'37.4277477:-122.1712246'
p11
VLomita Mall, Stanford, CA 94305, USA
p12
sS'37.4200348:-122.174724'
p13
VNarnia, 1135 Campus Drive, Stanford, CA 94305, USA
p14
sS'37.4208383:-122.1697816'
p15
V551-599 Lane W, Stanford, CA 94305, USA
p16
sS'37.4259588:-122.1672895'
p17
V560 Escondido Mall, Stanford, CA 94305, USA
p18
sS'37.4209487:-122.1700138'
p19
V675 Lomita Dr, Stanford, CA 94305, USA
p20
sS'37.4208781:-122.169986'
p21
V675 Lomita Dr, Stanford, CA 94305, USA
p22
sS'37.4286202:-122.1716669'
p23
V452 Lomita Mall, Stanford, CA 94305, USA
p24
sS'37.4371638:-122.2032727'
p25
V1890 Valparaiso Ave, West Menlo Park, CA 94025, USA
p26
sS'37.4209896:-122.1700626'
p27
V675 Lomita Dr, Stanford, CA 94305, USA
p28
sS'37.4293543:-122.196862'
p29
V3868-3876 Alameda de las Pulgas, West Menlo Park, CA 94025, USA
p30
sS'37.4279316:-122.1898927'
p31
V2001-2013 Sand Hill Rd, Stanford, CA 94305, USA
p32
sS'37.4253551:-122.1676475'
p33
V488 Escondido Mall, Stanford, CA 94305, USA
p34
sS'37.4291756:-122.1691951'
p35
V20 Palm Dr, Stanford, CA 94305, USA
p36
sS'37.4468884:-122.1597227'
p37
V527 Waverley St, Palo Alto, CA 94301, USA
p38
sS'37.4256875:-122.1773775'
p39
V324 Santa Teresa St, Stanford, CA 94305, USA
p40
sS'37.4258245:-122.1471655'
p41
V2244-2280 Betty Meltzer Memorial Hwy, Palo Alto, CA 94306, USA
p42
sS'37.7823807:-122.4326202'
p43
VEllis St, San Francisco, CA 94115, USA
p44
sS'37.4209023:-122.1702184'
p45
V675 Lomita Dr, Stanford, CA 94305, USA
p46
sS'37.4210033:-122.1700214'
p47
V675 Lomita Dr, Stanford, CA 94305, USA
p48
sS'37.4208073:-122.1703676'
p49
V675 Lomita Dr, Stanford, CA 94305, USA
p50
sS'37.423889:-122.1606293'
p51
V870 Campus Drive, Stanford, CA 94305, USA
p52
sS'37.4236275:-122.1715051'
p53
V533-571 Lagunita Dr, Stanford, CA 94305, USA
p54
sS'37.4266028:-122.1708092'
p55
V590 Escondido Mall, Stanford, CA 94305, USA
p56
sS'37.4209434:-122.169925'
p57
V675 Lomita Dr, Stanford, CA 94305, USA
p58
sS'37.4208084:-122.170307'
p59
V675 Lomita Dr, Stanford, CA 94305, USA
p60
sS'37.7739755:-122.4235546'
p61
V174 Page St, San Francisco, CA 94102, USA
p62
sS'37.4302038:-122.1711538'
p63
V376 Lomita Dr, Stanford, CA 94305, USA
p64
sS'37.4220162:-122.1671148'
p65
VCampus Drive, Stanford, CA 94305, USA
p66
sS'37.4242255:-122.1709518'
p67
VTresidder Memorial Union, 459 Lagunita Dr, Stanford, CA 94305, USA
p68
sS'37.4247085:-122.1698928'
p69
V520 Lasuen Mall, Stanford, CA 94305, USA
p70
sS'37.4208388:-122.1702388'
p71
V675 Lomita Dr, Stanford, CA 94305, USA
p72
sS'37.4285005:-122.1752675'
p73
V316 Via Pueblo, Stanford, CA 94305, USA
p74
sS'37.4289833:-122.1729379'
p75
VWilliam R. Hewlett Teaching Center, 370 Serra Mall, Stanford, CA 94305, USA
p76
sS'37.426351:-122.1671779'
p77
V557 Escondido Mall, Stanford, CA 94305, USA
p78
sS'37.4257014:-122.1729623'
p79
VLomita Mall, Stanford, CA 94305, USA
p80
sS'37.4209235:-122.1701445'
p81
V675 Lomita Dr, Stanford, CA 94305, USA
p82
sS'37.4208689:-122.1699453'
p83
V675 Lomita Dr, Stanford, CA 94305, USA
p84
sS'37.4264827:-122.1762913'
p85
VVia Ortega Dr, Stanford, CA 94305, USA
p86
sS'37.4383604:-122.1594839'
p87
VBuilding 2, 75, 855 El Camino Real, Palo Alto, CA 94301, USA
p88
sS'37.4209658:-122.1699112'
p89
V675 Lomita Dr, Stanford, CA 94305, USA
p90
sS'37.4302599:-122.1711813'
p91
V376 Lomita Dr, Stanford, CA 94305, USA
p92
sS'37.4278954:-122.1759697'
p93
VS Service Rd, Stanford, CA 94305, USA
p94
sS'37.4210015:-122.1693707'
p95
V551-599 Lane W, Stanford, CA 94305, USA
p96
sS'37.5778963:-122.3484168'
p97
V303 Primrose Rd, Burlingame, CA 94010, USA
p98
sS'37.4229367:-122.1668694'
p99
V563 Salvatierra St, Stanford, CA 94305, USA
p100
sS'37.4382564:-122.1593848'
p101
VBuilding 2, 75, 855 El Camino Real, Palo Alto, CA 94301, USA
p102
sS'37.4208262:-122.1699381'
p103
V675 Lomita Dr, Stanford, CA 94305, USA
p104
sS'37.4208457:-122.1698766'
p105
V675 Lomita Dr, Stanford, CA 94305, USA
p106
sS'37.4211286:-122.1698657'
p107
V675 Lomita Dr, Stanford, CA 94305, USA
p108
sS'37.4378168:-122.2043651'
p109
V1470 Franks Ln, Menlo Park, CA 94025, USA
p110
sS'37.4385097:-122.1601158'
p111
V151, 855 El Camino Real, Palo Alto, CA 94301, USA
p112
sS'37.4446423:-122.1708332'
p113
V158-166 Stanford Dr, Palo Alto, CA 94304, USA
p114
sS'37.4267294:-122.1733993'
p115
VDurand Building, 496 Lomita Mall, Stanford, CA 94305, USA
p116
sS'37.4208587:-122.1699514'
p117
V675 Lomita Dr, Stanford, CA 94305, USA
p118
sS'37.4378368:-122.1779887'
p119
V732-816 Sand Hill Rd, Palo Alto, CA 94304, USA
p120
sS'37.437769:-122.2043634'
p121
V1470-1490 Franks Ln, West Menlo Park, CA 94025, USA
p122
sS'37.4240101:-122.1704799'
p123
V459 Lagunita Dr, Stanford, CA 94305, USA
p124
sS'37.4229192:-122.1668297'
p125
V563 Salvatierra St, Stanford, CA 94305, USA
p126
sS'37.4281297:-122.1732596'
p127
VNorth-South Axis, Stanford, CA 94305, USA
p128
sS'37.7886556:-122.4071044'
p129
V300 Post St, San Francisco, CA 94108, USA
p130
sS'37.4418831:-122.1611539'
p131
V100 Forest Ave, Palo Alto, CA 94301, USA
p132
sS'37.4209679:-122.1700988'
p133
V675 Lomita Dr, Stanford, CA 94305, USA
p134
sS'37.4451188:-122.1623627'
p135
V222-230 University Ave, Palo Alto, CA 94301, USA
p136
sS'37.4208147:-122.1698067'
p137
V551-599 Lane W, Stanford, CA 94305, USA
p138
sS'37.42074:-122.1699055'
p139
V675 Lomita Dr, Stanford, CA 94305, USA
p140
sS'37.423893:-122.1969556'
p141
V325 Sharon Park Dr, Menlo Park, CA 94025, USA
p142
sS'37.4209316:-122.1697244'
p143
V551-599 Lane W, Stanford, CA 94305, USA
p144
sS'37.4240416:-122.1967272'
p145
V325m Sharon Park Dr, Menlo Park, CA 94025, USA
p146
sS'37.4233909:-122.1429068'
p147
V2650 El Camino Real, Palo Alto, CA 94306, USA
p148
sS'37.4211456:-122.1702831'
p149
V675 Lomita Dr, Stanford, CA 94305, USA
p150
sS'37.4265827:-122.1773237'
p151
VArrillaga Outdoor Education and Recreation Center, 285 Santa Teresa St, Stanford, CA 94305, USA
p152
sS'37.4239182:-122.1707302'
p153
VTresidder Memorial Union, 459 Lagunita Dr, Stanford, CA 94305, USA
p154
sS'37.4209195:-122.1700223'
p155
V675 Lomita Dr, Stanford, CA 94305, USA
p156
sS'37.7878775:-122.4079305'
p157
VThe Dewey Monument, San Francisco, CA 94108, USA
p158
sS'37.4209025:-122.1700027'
p159
V675 Lomita Dr, Stanford, CA 94305, USA
p160
sS'37.422232:-122.1667606'
p161
VCampus Drive, Stanford, CA 94305, USA
p162
sS'37.4378467:-122.2043246'
p163
V1470 Franks Ln, Menlo Park, CA 94025, USA
p164
sS'37.4269198:-122.1704571'
p165
VWomen's Restroom, Stanford, CA 94305, USA
p166
sS'37.4239945:-122.1705202'
p167
V459 Lagunita Dr, Stanford, CA 94305, USA
p168
sS'37.4208004:-122.1700586'
p169
V675 Lomita Dr, Stanford, CA 94305, USA
p170
sS'37.4255882:-122.1734448'
p171
VThornton Center (Terman Annex), 379 Santa Teresa St, Stanford, CA 94305, USA
p172
sS'37.4433885:-122.1723385'
p173
VPalo Alto, CA 94304, USA
p174
sS'37.4245173:-122.1700206'
p175
V300-320 Lasuen Mall, Stanford, CA 94305, USA
p176
sS'37.4269779:-122.1672986'
p177
V852-880 Crothers Way, Stanford, CA 94305, USA
p178
sS'37.4223406:-122.1658883'
p179
V576, 576 Alvarado Row, Stanford, CA 94305, USA
p180
sS'37.4214775:-122.1693938'
p181
V551-599 Lane W, Stanford, CA 94305, USA
p182
sS'37.429734:-122.1677201'
p183
VLasuen St, Stanford, CA 94305, USA
p184
sS'37.4265218:-122.1687878'
p185
V459 Lasuen Mall, Stanford, CA 94305, USA
p186
sS'37.4439906:-122.1627972'
p187
V156 University Ave, Palo Alto, CA 94301, USA
p188
sS'37.4208545:-122.1700282'
p189
V675 Lomita Dr, Stanford, CA 94305, USA
p190
sS'37.4209154:-122.1699478'
p191
V675 Lomita Dr, Stanford, CA 94305, USA
p192
sS'37.4209719:-122.1700564'
p193
V675 Lomita Dr, Stanford, CA 94305, USA
p194
sS'37.4209716:-122.1699684'
p195
V675 Lomita Dr, Stanford, CA 94305, USA
p196
sS'37.4274396:-122.1707975'
p197
V450 Serra Mall, Stanford, CA 94305, USA
p198
sS'37.4287477:-122.1688484'
p199
V551 Serra Mall, Stanford, CA 94305, USA
p200
sS'37.4207865:-122.1702221'
p201
V675 Lomita Dr, Stanford, CA 94305, USA
p202
sS'37.4292018:-122.1706288'
p203
V380 Serra Mall, Stanford, CA 94305, USA
p204
sS'37.4306191:-122.171236'
p205
V376 Lomita Dr, Stanford, CA 94305, USA
p206
sS'37.4198518:-122.1738271'
p207
V1115 Campus Drive, Stanford, CA 94305, USA
p208
sS'37.4471825:-122.1605359'
p209
V454-498 Waverley St, Palo Alto, CA 94301, USA
p210
sS'37.4299051:-122.1730137'
p211
VN - South Axis, Stanford, CA 94305, USA
p212
sS'37.4279866:-122.1687298'
p213
V550 Lasuen Mall, Stanford, CA 94305, USA
p214
sS'37.4364097:-122.2013737'
p215
V1304 Orange Ave, Menlo Park, CA 94025, USA
p216
sS'37.4208685:-122.1699273'
p217
V675 Lomita Dr, Stanford, CA 94305, USA
p218
sS'37.4202857:-122.1700669'
p219
V1035 Campus Drive, Stanford, CA 94305, USA
p220
sS'37.4291066:-122.1729261'
p221
VWilliam R. Hewlett Teaching Center, 370 Serra Mall, Stanford, CA 94305, USA
p222
sS'37.4255249:-122.1447864'
p223
V466-472 Jacaranda Ln, Palo Alto, CA 94306, USA
p224
sS'37.439887:-122.1624919'
p225
V795 Medical Foundation Dr, Palo Alto, CA 94301, USA
p226
sS'37.4534464:-122.1830538'
p227
V601-603 Santa Cruz Ave, Menlo Park, CA 94025, USA
p228
sS'37.421929:-122.1868311'
p229
V114-158 Junipero Serra Blvd, Stanford, CA 94305, USA
p230
sS'37.4211657:-122.1701651'
p231
V675 Lomita Dr, Stanford, CA 94305, USA
p232
sS'37.4209141:-122.1699015'
p233
V675 Lomita Dr, Stanford, CA 94305, USA
p234
sS'37.4211102:-122.169979'
p235
V675 Lomita Dr, Stanford, CA 94305, USA
p236
sS'37.4209966:-122.1701091'
p237
V675 Lomita Dr, Stanford, CA 94305, USA
p238
sS'37.4183004:-122.1660246'
p239
V717-721 Dolores St, Stanford, CA 94305, USA
p240
sS'37.4533664:-122.1834008'
p241
V602 Santa Cruz Ave, Menlo Park, CA 94025, USA
p242
sS'37.4238515:-122.1705979'
p243
V575-615 Lagunita Dr, Stanford, CA 94305, USA
p244
sS'37.4209284:-122.1700347'
p245
V675 Lomita Dr, Stanford, CA 94305, USA
p246
sS'37.4235969:-122.1698712'
p247
VBraun Music Center, 541 Lasuen Mall, Stanford, CA 94305, USA
p248
sS'37.4431225:-122.169141'
p249
V20 Stanford Shopping Center, Palo Alto, CA 94304, USA
p250
sS'37.4241045:-122.1708553'
p251
VTresidder Memorial Union, 459 Lagunita Dr, Stanford, CA 94305, USA
p252
sS'37.4443564:-122.1701392'
p253
V82 Stanford Shopping Center, Palo Alto, CA 94304, USA
p254
sS'37.4376036:-122.2041821'
p255
V1440-1460 Franks Ln, West Menlo Park, CA 94025, USA
p256
sS'37.4208364:-122.1697871'
p257
V551-599 Lane W, Stanford, CA 94305, USA
p258
sS'37.4426372:-122.1649616'
p259
V49-73 University Ave, Palo Alto, CA 94301, USA
p260
sS'37.4283863:-122.1747026'
p261
V475 Via Ortega, Stanford, CA 94305, USA
p262
sS'37.4178539:-122.1320278'
p263
V3775 CA-82, Palo Alto, CA 94306, USA
p264
sS'37.4210792:-122.1695191'
p265
V551-599 Lane W, Stanford, CA 94305, USA
p266
sS'37.4204842:-122.1713754'
p267
V680 Lomita Dr, Stanford, CA 94305, USA
p268
sS'37.4264438:-122.1676807'
p269
V557 Escondido Mall, Stanford, CA 94305, USA
p270
sS'37.4208627:-122.1698856'
p271
V675 Lomita Dr, Stanford, CA 94305, USA
p272
sS'37.4248185:-122.1707026'
p273
V524 Duena St, Stanford, CA 94305, USA
p274
sS'37.4209115:-122.1691562'
p275
V551-599 Lane W, Stanford, CA 94305, USA
p276
sS'37.4306319:-122.171232'
p277
V376 Lomita Dr, Stanford, CA 94305, USA
p278
sS'37.4215392:-122.1693898'
p279
V501-549 Lane W, Stanford, CA 94305, USA
p280
sS'37.4237938:-122.1712758'
p281
V533-571 Lagunita Dr, Stanford, CA 94305, USA
p282
sS'37.616777:-122.3844545'
p283
VDomestic Garage, San Francisco, CA 94128, USA
p284
sS'37.420938:-122.1698992'
p285
V675 Lomita Dr, Stanford, CA 94305, USA
p286
sS'37.4210193:-122.170029'
p287
V675 Lomita Dr, Stanford, CA 94305, USA
p288
sS'37.4297141:-122.1728468'
p289
V371 Serra Mall, Stanford, CA 94305, USA
p290
sS'37.4377041:-122.2044117'
p291
V1470-1490 Franks Ln, West Menlo Park, CA 94025, USA
p292
sS'37.4208593:-122.1699426'
p293
V675 Lomita Dr, Stanford, CA 94305, USA
p294
sS'37.4282337:-122.1715284'
p295
VLomita Mall, Stanford, CA 94305, USA
p296
sS'37.4284073:-122.1606391'
p297
V578 Campus Drive, Stanford, CA 94305, USA
p298
sS'37.4208453:-122.1699882'
p299
V675 Lomita Dr, Stanford, CA 94305, USA
p300
sS'37.4228445:-122.1418357'
p301
V2905 El Camino Real, Palo Alto, CA 94306, USA
p302
sS'37.4208972:-122.1699972'
p303
V675 Lomita Dr, Stanford, CA 94305, USA
p304
sS'37.4281743:-122.1631276'
p305
V635 Serra St, Stanford, CA 94305, USA
p306
sS'37.4208915:-122.1699503'
p307
V675 Lomita Dr, Stanford, CA 94305, USA
p308
sS'37.4208814:-122.1699856'
p309
V675 Lomita Dr, Stanford, CA 94305, USA
p310
sS'37.4208414:-122.1699098'
p311
V675 Lomita Dr, Stanford, CA 94305, USA
p312
sS'37.4443484:-122.1711372'
p313
VPalo Alto, CA 94304, USA
p314
sS'37.4277015:-122.1697681'
p315
V450 Serra Mall, Stanford, CA 94305, USA
p316
sS'37.4208665:-122.1698432'
p317
V675 Lomita Dr, Stanford, CA 94305, USA
p318
sS'37.43816:-122.1592713'
p319
VBuilding 2, 75, 855 El Camino Real, Palo Alto, CA 94301, USA
p320
sS'37.4212016:-122.1701146'
p321
V675 Lomita Dr, Stanford, CA 94305, USA
p322
sS'37.426116:-122.1456231'
p323
V415-469 New Mayfield Ln, Palo Alto, CA 94306, USA
p324
sS'37.4210215:-122.169944'
p325
V675 Lomita Dr, Stanford, CA 94305, USA
p326
sS'37.4297559:-122.1700736'
p327
V20 Palm Dr, Stanford, CA 94305, USA
p328
sS'37.4208251:-122.1693611'
p329
V551-599 Lane W, Stanford, CA 94305, USA
p330
sS'37.4425144:-122.1705054'
p331
V666-684 Orchard Lane, Palo Alto, CA 94304, USA
p332
sS'37.4240784:-122.1707337'
p333
VTresidder Memorial Union, 459 Lagunita Dr, Stanford, CA 94305, USA
p334
sS'37.425077:-122.1723403'
p335
V429-447 Santa Teresa St, Stanford, CA 94305, USA
p336
sS'37.4238906:-122.167519'
p337
VCrown Quadrangle, 559 Nathan Abbott Way, Stanford, CA 94305, USA
p338
sS'37.4210388:-122.1696688'
p339
V551-599 Lane W, Stanford, CA 94305, USA
p340
sS'37.4220441:-122.1700341'
p341
V500 Lane W, Stanford, CA 94305, USA
p342
sS'37.4285298:-122.1956402'
p343
V2110 Santa Cruz Ave, West Menlo Park, CA 94025, USA
p344
sS'37.421016:-122.1696743'
p345
V551-599 Lane W, Stanford, CA 94305, USA
p346
sS'37.420929:-122.170012'
p347
V675 Lomita Dr, Stanford, CA 94305, USA
p348
sS'37.4244555:-122.1707416'
p349
VTresidder Memorial Union, 459 Lagunita Dr, Stanford, CA 94305, USA
p350
sS'37.4281941:-122.1734303'
p351
VNorth-South Axis, Stanford, CA 94305, USA
p352
sS'37.5475091:-122.3110994'
p353
V2001-2099 Wyoming Way, San Mateo, CA 94403, USA
p354
sS'37.4299385:-122.1730219'
p355
VN - South Axis, Stanford, CA 94305, USA
p356
sS'37.7841874:-122.427167'
p357
V66 Cleary Ct, San Francisco, CA 94109, USA
p358
sS'37.4129585:-122.125114'
p359
V4131 El Camino Real, Palo Alto, CA 94306, USA
p360
sS'37.4211083:-122.1694171'
p361
V551-599 Lane W, Stanford, CA 94305, USA
p362
sS'37.4209535:-122.1699134'
p363
V675 Lomita Dr, Stanford, CA 94305, USA
p364
sS'37.7832022:-122.4320107'
p365
V75-99 Byington St, San Francisco, CA 94115, USA
p366
sS'37.4291121:-122.166495'
p367
V551 Serra Mall, Stanford, CA 94305, USA
p368
sS'37.4459977:-122.1613728'
p369
V300 University Ave, Palo Alto, CA 94301, USA
p370
sS'37.4215323:-122.1690839'
p371
V551-599 Lane W, Stanford, CA 94305, USA
p372
sS'37.4274324:-122.1683174'
p373
V981-999 Crothers Way, Stanford, CA 94305, USA
p374
sS'37.4209011:-122.1699602'
p375
V675 Lomita Dr, Stanford, CA 94305, USA
p376
sS'37.4208564:-122.169962'
p377
V675 Lomita Dr, Stanford, CA 94305, USA
p378
sS'37.4208706:-122.1698834'
p379
V675 Lomita Dr, Stanford, CA 94305, USA
p380
sS'37.4306029:-122.1539403'
p381
V1600 El Camino Real, Palo Alto, CA 94306, USA
p382
sS'37.420671:-122.1695633'
p383
V548 Lane W, Stanford, CA 94305, USA
p384
sS'37.4423931:-122.1706767'
p385
VPalo Alto, CA 94304, USA
p386
sS'37.4306917:-122.1539911'
p387
V1600 El Camino Real, Palo Alto, CA 94306, USA
p388
sS'37.4210086:-122.1700782'
p389
V675 Lomita Dr, Stanford, CA 94305, USA
p390
sS'37.4208609:-122.1699447'
p391
V675 Lomita Dr, Stanford, CA 94305, USA
p392
sS'37.4378178:-122.2043232'
p393
V1470 Franks Ln, Menlo Park, CA 94025, USA
p394
sS'37.4211891:-122.1697886'
p395
V675 Lomita Dr, Stanford, CA 94305, USA
p396
sS'37.4209813:-122.1700411'
p397
V675 Lomita Dr, Stanford, CA 94305, USA
p398
sS'37.4343535:-122.1981688'
p399
V1930-1940 Santa Cruz Ave, Menlo Park, CA 94025, USA
p400
sS'37.4231289:-122.170429'
p401
V628 Lagunita Dr, Stanford, CA 94305, USA
p402
sS'37.4209471:-122.170057'
p403
V675 Lomita Dr, Stanford, CA 94305, USA
p404
sS'37.4371863:-122.2033215'
p405
V1890 Valparaiso Ave, West Menlo Park, CA 94025, USA
p406
sS'37.4377598:-122.2044073'
p407
V1470-1490 Franks Ln, West Menlo Park, CA 94025, USA
p408
sS'37.4209739:-122.1700215'
p409
V675 Lomita Dr, Stanford, CA 94305, USA
p410
sS'37.7612838:-122.4314271'
p411
V3930 18th St, San Francisco, CA 94114, USA
p412
sS'37.4219952:-122.16731'
p413
VCampus Drive, Stanford, CA 94305, USA
p414
sS'37.4232944:-122.1701897'
p415
V635 Lagunita Dr, Stanford, CA 94305, USA
p416
sS'37.4209731:-122.1700656'
p417
V675 Lomita Dr, Stanford, CA 94305, USA
p418
sS'37.4266051:-122.1771855'
p419
VArrillaga Outdoor Education and Recreation Center, 285 Santa Teresa St, Stanford, CA 94305, USA
p420
sS'37.420863:-122.1699211'
p421
V675 Lomita Dr, Stanford, CA 94305, USA
p422
sS'37.4209215:-122.1698922'
p423
V675 Lomita Dr, Stanford, CA 94305, USA
p424
sS'37.430669:-122.171314'
p425
VOld Chemistry Building, Stanford, CA 94305, USA
p426
sS'37.4212161:-122.1699943'
p427
V675 Lomita Dr, Stanford, CA 94305, USA
p428
sS'37.4248641:-122.1916179'
p429
VSanta Cruz Ave, Stanford, CA 94305, USA
p430
sS'37.4238954:-122.1959427'
p431
V125 Sharon Park Dr, Menlo Park, CA 94025, USA
p432
sS'37.7372604:-122.4254234'
p433
V1021-1099 San Jose Avenue, San Francisco, CA 94110, USA
p434
sS'37.4471368:-122.1604244'
p435
V405 University Ave, Palo Alto, CA 94301, USA
p436
sS'37.4255361:-122.172895'
p437
VLomita Mall, Stanford, CA 94305, USA
p438
sS'37.4210941:-122.1700258'
p439
V675 Lomita Dr, Stanford, CA 94305, USA
p440
sS'37.4263738:-122.17636'
p441
VVia Ortega Dr, Stanford, CA 94305, USA
p442
sS'37.4166225:-122.1469955'
p443
V1005-1125 Page Mill Rd, Palo Alto, CA 94304, USA
p444
sS'37.4209447:-122.170003'
p445
V675 Lomita Dr, Stanford, CA 94305, USA
p446
sS'37.4209462:-122.1699715'
p447
V675 Lomita Dr, Stanford, CA 94305, USA
p448
sS'37.4208618:-122.1704719'
p449
V675 Lomita Dr, Stanford, CA 94305, USA
p450
sS'37.4205278:-122.1690193'
p451
VPhi Sig, 1018 Campus Drive, Stanford, CA 94305, USA
p452
sS'37.4377224:-122.2044134'
p453
V1470-1490 Franks Ln, West Menlo Park, CA 94025, USA
p454
sS'37.4209375:-122.1699593'
p455
V675 Lomita Dr, Stanford, CA 94305, USA
p456
sS'37.4246:-122.1705618'
p457
V459 Lagunita Dr, Stanford, CA 94305, USA
p458
sS'37.4221142:-122.1671803'
p459
VCampus Drive, Stanford, CA 94305, USA
p460
sS'37.4244603:-122.1707228'
p461
VTresidder Memorial Union, 459 Lagunita Dr, Stanford, CA 94305, USA
p462
sS'37.7881602:-122.4086684'
p463
V421 Post St, San Francisco, CA 94102, USA
p464
sS'37.4285369:-122.1733538'
p465
VNorth-South Axis, Stanford, CA 94305, USA
p466
sS'37.4210404:-122.1698599'
p467
V675 Lomita Dr, Stanford, CA 94305, USA
p468
sS'37.421519:-122.1689686'
p469
VBOB (Robert Moore S), 566 Mayfield Ave, Stanford, CA 94305, USA
p470
sS'37.4238359:-122.1968485'
p471
V325 Sharon Park Dr, Menlo Park, CA 94025, USA
p472
sS'37.423917:-122.1704992'
p473
V575-615 Lagunita Dr, Stanford, CA 94305, USA
p474
sS'37.4209139:-122.1698985'
p475
V675 Lomita Dr, Stanford, CA 94305, USA
p476
sS'37.7453167:-122.4049554'
p477
VBayshore Fwy, San Francisco, CA 94110, USA
p478
sS'37.4378718:-122.2044058'
p479
V1490 Franks Ln, Menlo Park, CA 94025, USA
p480
sS'37.4210792:-122.16905'
p481
V701-745 Campus Drive, Stanford, CA 94305, USA
p482
sS'37.4218748:-122.1681534'
p483
VHFD, Stanford, CA 94305, USA
p484
sS'37.4531235:-122.1836381'
p485
V620 Santa Cruz Ave, Menlo Park, CA 94025, USA
p486
sS'37.4211274:-122.1698874'
p487
V675 Lomita Dr, Stanford, CA 94305, USA
p488
sS'37.4312008:-122.1544941'
p489
V1600 El Camino Real, Palo Alto, CA 94306, USA
p490
sS'37.4246637:-122.1704824'
p491
V524 Lasuen Mall, Stanford, CA 94305, USA
p492
sS'37.7834383:-122.4103379'
p493
V66 Turk St, San Francisco, CA 94102, USA
p494
sS'37.4212005:-122.1848931'
p495
V198 Junipero Serra Blvd, Stanford, CA 94305, USA
p496
sS'37.4208093:-122.1700977'
p497
V675 Lomita Dr, Stanford, CA 94305, USA
p498
sS'37.4270854:-122.1700413'
p499
VEscondido Rd, Palo Alto, CA 94305, USA
p500
sS'37.4209179:-122.1700318'
p501
V675 Lomita Dr, Stanford, CA 94305, USA
p502
sS'37.4213026:-122.1841469'
p503
V198 Junipero Serra Blvd, Stanford, CA 94305, USA
p504
sS'37.4378116:-122.2043978'
p505
V1490 Franks Ln, Menlo Park, CA 94025, USA
p506
sS'37.4210326:-122.1698631'
p507
V675 Lomita Dr, Stanford, CA 94305, USA
p508
sS'37.4232537:-122.1701268'
p509
V635-699 Lagunita Dr, Stanford, CA 94305, USA
p510
sS'37.4182931:-122.1659512'
p511
V717 Dolores, 717 Dolores St, Stanford, CA 94305, USA
p512
sS'37.4377183:-122.2046022'
p513
V1471-1499 Franks Ln, West Menlo Park, CA 94025, USA
p514
sS'37.4387411:-122.1612704'
p515
V841 CA-82, Palo Alto, CA 94301, USA
p516
sS'37.4377322:-122.2043229'
p517
V1460-1470 Franks Ln, West Menlo Park, CA 94025, USA
p518
sS'37.4265691:-122.1665199'
p519
V618-792 Crothers Way, Stanford, CA 94305, USA
p520
sS'37.4378342:-122.1585749'
p521
V15 Embarcadero Rd, Palo Alto, CA 94301, USA
p522
sS'37.4209146:-122.1699662'
p523
V675 Lomita Dr, Stanford, CA 94305, USA
p524
sS'37.4209072:-122.1700267'
p525
V675 Lomita Dr, Stanford, CA 94305, USA
p526
sS'37.4262589:-122.1459207'
p527
V441 Cambridge Ave, Palo Alto, CA 94306, USA
p528
sS'37.43095:-122.1542526'
p529
V1600 El Camino Real, Palo Alto, CA 94306, USA
p530
sS'37.4210048:-122.1698442'
p531
V675 Lomita Dr, Stanford, CA 94305, USA
p532
sS'37.4377759:-122.204518'
p533
V1490-1498 Franks Ln, West Menlo Park, CA 94025, USA
p534
sS'37.4335915:-122.1975958'
p535
V1975 Santa Cruz Ave, Menlo Park, CA 94025, USA
p536
sS'37.4209336:-122.1699348'
p537
V675 Lomita Dr, Stanford, CA 94305, USA
p538
sS'37.4209435:-122.1699187'
p539
V675 Lomita Dr, Stanford, CA 94305, USA
p540
sS'37.4220313:-122.1701455'
p541
V500 Lane W, Stanford, CA 94305, USA
p542
sS'37.4239585:-122.1704278'
p543
V575-615 Lagunita Dr, Stanford, CA 94305, USA
p544
sS'37.761246:-122.4305108'
p545
V495 Sanchez St, San Francisco, CA 94114, USA
p546
sS'37.4263478:-122.1877666'
p547
VFremont Rd, Stanford, CA 94305, USA
p548
sS'37.4382804:-122.1597641'
p549
VBuilding 2, 75, 855 El Camino Real, Palo Alto, CA 94301, USA
p550
sS'37.4207409:-122.1698025'
p551
V551-599 Lane W, Stanford, CA 94305, USA
p552
sS'37.4295011:-122.1721425'
p553
V385 Serra Mall, Stanford, CA 94305, USA
p554
sS'37.4194111:-122.1715442'
p555
V401-675 Campus Drive, Stanford, CA 94305, USA
p556
sS'37.4298647:-122.1729372'
p557
VN - South Axis, Stanford, CA 94305, USA
p558
sS'37.4299476:-122.1730305'
p559
VN - South Axis, Stanford, CA 94305, USA
p560
sS'37.4209123:-122.1699798'
p561
V675 Lomita Dr, Stanford, CA 94305, USA
p562
sS'37.420912:-122.1698718'
p563
V675 Lomita Dr, Stanford, CA 94305, USA
p564
sS'37.4302816:-122.154575'
p565
V691 Pampas Ln, Stanford, CA 94305, USA
p566
sS'37.420912:-122.1699785'
p567
V675 Lomita Dr, Stanford, CA 94305, USA
p568
sS'37.4378802:-122.1597264'
p569
V1-13 Embarcadero Rd, Palo Alto, CA 94301, USA
p570
sS'37.420956:-122.1699619'
p571
V675 Lomita Dr, Stanford, CA 94305, USA
p572
sS'37.4272422:-122.1712482'
p573
VWomen's Restroom, Stanford, CA 94305, USA
p574
sS'37.4470875:-122.1720459'
p575
V15 CA-82, Menlo Park, CA 94025, USA
p576
sS'37.4344234:-122.1343249'
p577
VOregon Expy, Palo Alto, CA 94301, USA
p578
sS'37.4240612:-122.1712334'
p579
V459 Lagunita Dr, Stanford, CA 94305, USA
p580
sS'37.4212813:-122.1694579'
p581
V548-598 Lane W, Stanford, CA 94305, USA
p582
sS'37.4285511:-122.1707478'
p583
V380 Serra Mall, Stanford, CA 94305, USA
p584
sS'37.4197029:-122.1741582'
p585
V1115 Campus Drive, Stanford, CA 94305, USA
p586
sS'37.4377136:-122.2043165'
p587
V1460-1470 Franks Ln, West Menlo Park, CA 94025, USA
p588
sS'37.4280408:-122.1633509'
p589
V645 Knight Way, Stanford, CA 94305, USA
p590
sS'37.4195751:-122.1743456'
p591
VNarnia and EBF Rear Access Rd., Stanford, CA 94305, USA
p592
sS'37.4043782:-122.1464527'
p593
V3406-3494 Foothill Expy, Palo Alto, CA 94304, USA
p594
sS'37.4270128:-122.1698163'
p595
VEscondido Rd, Palo Alto, CA 94305, USA
p596
sS'37.4209272:-122.1699392'
p597
V675 Lomita Dr, Stanford, CA 94305, USA
p598
sS'37.4376468:-122.2043141'
p599
V1460-1470 Franks Ln, West Menlo Park, CA 94025, USA
p600
sS'37.4209258:-122.1698613'
p601
V675 Lomita Dr, Stanford, CA 94305, USA
p602
sS'37.4279282:-122.1684727'
p603
V450 Serra Mall, Stanford, CA 94305, USA
p604
sS'37.42125:-122.1694301'
p605
V551-599 Lane W, Stanford, CA 94305, USA
p606
sS'37.4208331:-122.1699371'
p607
V675 Lomita Dr, Stanford, CA 94305, USA
p608
sS'37.4278669:-122.1762925'
p609
V401-439 Via Ortega, Stanford, CA 94305, USA
p610
sS'37.4315404:-122.1712557'
p611
VKeck Science Building, Stanford, CA 94305, USA
p612
sS'37.4378873:-122.2044385'
p613
V1490 Franks Ln, Menlo Park, CA 94025, USA
p614
sS'37.4276002:-122.1694736'
p615
V526 Lasuen Mall, Stanford, CA 94305, USA
p616
sS'37.4268973:-122.1682602'
p617
V459 Lasuen Mall, Stanford, CA 94305, USA
p618
sS'37.4286804:-122.1715335'
p619
V380 Serra Mall, Stanford, CA 94305, USA
p620
sS'37.4389407:-122.1586041'
p621
V855 El Camino Real, Palo Alto, CA 94301, USA
p622
sS'37.42702:-122.1710423'
p623
VWomen's Restroom, Stanford, CA 94305, USA
p624
sS'37.4392992:-122.1582729'
p625
VBuilding 5, 151, 855 El Camino Real, Palo Alto, CA 94301, USA
p626
sS'37.4217608:-122.1681719'
p627
VHFD, Stanford, CA 94305, USA
p628
sS'37.4335542:-122.1836208'
p629
V1464-1470 Sand Hill Rd, Palo Alto, CA 94304, USA
p630
sS'37.4298459:-122.1733515'
p631
V868-898 Serra Mall, Stanford, CA 94305, USA
p632
sS'37.7886906:-122.4071167'
p633
V300 Post St, San Francisco, CA 94108, USA
p634
sS'37.4208275:-122.1700421'
p635
V675 Lomita Dr, Stanford, CA 94305, USA
p636
sS'37.4208855:-122.1699414'
p637
V675 Lomita Dr, Stanford, CA 94305, USA
p638
sS'37.4378093:-122.2044467'
p639
V1490 Franks Ln, Menlo Park, CA 94025, USA
p640
sS'37.4384709:-122.1591691'
p641
V855 El Camino Real, Palo Alto, CA 94301, USA
p642
sS'37.447679:-122.1598166'
p643
V448 University Ave, Palo Alto, CA 94301, USA
p644
sS'37.4256512:-122.19219'
p645
V2183 Santa Cruz Ave, Menlo Park, CA 94025, USA
p646
sS'37.4221643:-122.170007'
p647
V500 Lane W, Stanford, CA 94305, USA
p648
sS'37.4209187:-122.1697249'
p649
V551-599 Lane W, Stanford, CA 94305, USA
p650
sS'37.4422992:-122.159361'
p651
V774 Emerson St, Palo Alto, CA 94301, USA
p652
sS'37.4209233:-122.1698429'
p653
V675 Lomita Dr, Stanford, CA 94305, USA
p654
sS'37.4209622:-122.1699254'
p655
V675 Lomita Dr, Stanford, CA 94305, USA
p656
sS'37.428456:-122.1753574'
p657
V473 Via Ortega, Stanford, CA 94305, USA
p658
sS'37.4296001:-122.1539676'
p659
V86 Olmsted Rd, Stanford, CA 94305, USA
p660
sS'37.4248239:-122.1704389'
p661
V524 Lasuen Mall, Stanford, CA 94305, USA
p662
sS'37.4322902:-122.1713502'
p663
V355 Roth Way, Palo Alto, CA 94304, USA
p664
sS'37.7739889:-122.4230048'
p665
V101-111 Page St, San Francisco, CA 94102, USA
p666
sS'37.4378397:-122.2044265'
p667
V1490 Franks Ln, Menlo Park, CA 94025, USA
p668
sS'37.438566:-122.1590451'
p669
V75, 855 El Camino Real, Palo Alto, CA 94301, USA
p670
sS'37.5476042:-122.3110065'
p671
V2001-2099 Wyoming Way, San Mateo, CA 94403, USA
p672
sS'37.4450086:-122.1707223'
p673
V160 Stanford Shopping Center, Palo Alto, CA 94304, USA
p674
sS'37.4256463:-122.1921728'
p675
V2183 Santa Cruz Ave, Menlo Park, CA 94025, USA
p676
sS'37.4228323:-122.1697411'
p677
V500 Mayfield Ave, Stanford, CA 94305, USA
p678
sS'37.4303099:-122.1711969'
p679
V376 Lomita Dr, Stanford, CA 94305, USA
p680
sS'37.4377368:-122.2044041'
p681
V1470-1490 Franks Ln, West Menlo Park, CA 94025, USA
p682
sS'37.4212051:-122.1846005'
p683
V198 Junipero Serra Blvd, Stanford, CA 94305, USA
p684
sS'37.4234398:-122.1702678'
p685
V617-633 Lagunita Dr, Stanford, CA 94305, USA
p686
sS'37.4372845:-122.159687'
p687
V2-6 Embarcadero Rd, Palo Alto, CA 94301, USA
p688
sS'37.4531889:-122.1833369'
p689
V610 Santa Cruz Ave, Menlo Park, CA 94025, USA
p690
sS'37.419933:-122.1737013'
p691
V1115 Campus Drive, Stanford, CA 94305, USA
p692
sS'37.4450785:-122.170687'
p693
V160 Stanford Shopping Center, Palo Alto, CA 94304, USA
p694
sS'37.4207816:-122.1694781'
p695
V548-598 Lane W, Stanford, CA 94305, USA
p696
sS'37.4284375:-122.1743784'
p697
V348 Via Pueblo, Stanford, CA 94305, USA
p698
sS'37.4218343:-122.1682114'
p699
VHFD, Stanford, CA 94305, USA
p700
sS'37.4234693:-122.1966604'
p701
V2122-2180 Sand Hill Rd, Menlo Park, CA 94025, USA
p702
sS'37.4176196:-122.1318181'
p703
V3780 CA-82, Palo Alto, CA 94306, USA
p704
sS'37.4297258:-122.1730946'
p705
V353 Serra Mall, Stanford, CA 94305, USA
p706
sS'37.4300841:-122.1722646'
p707
V371 Serra Mall, Stanford, CA 94305, USA
p708
sS'37.424541:-122.1707102'
p709
VTresidder Memorial Union, 459 Lagunita Dr, Stanford, CA 94305, USA
p710
sS'37.4209372:-122.1699849'
p711
V675 Lomita Dr, Stanford, CA 94305, USA
p712
sS'37.4449405:-122.1614986'
p713
V535 Ramona St, Palo Alto, CA 94301, USA
p714
sS'37.4207979:-122.1703056'
p715
V675 Lomita Dr, Stanford, CA 94305, USA
p716
sS'37.4210474:-122.1697039'
p717
V548-598 Lane W, Stanford, CA 94305, USA
p718
sS'37.4209529:-122.170046'
p719
V675 Lomita Dr, Stanford, CA 94305, USA
p720
sS'37.4260098:-122.1763588'
p721
V373 Santa Teresa St, Stanford, CA 94305, USA
p722
sS'37.4131848:-122.1531597'
p723
V1022-1086 Peter Coutts Rd, Stanford, CA 94305, USA
p724
sS'37.4208603:-122.1700034'
p725
V675 Lomita Dr, Stanford, CA 94305, USA
p726
sS'37.4212232:-122.170334'
p727
V675 Lomita Dr, Stanford, CA 94305, USA
p728
sS'37.4255804:-122.1467624'
p729
V498 Cambridge Ave, Palo Alto, CA 94306, USA
p730
sS'37.4203248:-122.173512'
p731
V636 Lomita Ct, Stanford, CA 94305, USA
p732
sS'37.4241463:-122.1708713'
p733
VTresidder Memorial Union, 459 Lagunita Dr, Stanford, CA 94305, USA
p734
sS'37.420914:-122.1700746'
p735
V675 Lomita Dr, Stanford, CA 94305, USA
p736
sS'37.4238126:-122.1705297'
p737
V575-615 Lagunita Dr, Stanford, CA 94305, USA
p738
sS'37.4209108:-122.1699401'
p739
V675 Lomita Dr, Stanford, CA 94305, USA
p740
sS'37.425708:-122.1674225'
p741
V560 Escondido Mall, Stanford, CA 94305, USA
p742
sS'37.785083:-122.4274242'
p743
V1464-1498 Geary Blvd, San Francisco, CA 94109, USA
p744
sS'37.4279962:-122.1761666'
p745
VS Service Rd, Stanford, CA 94305, USA
p746
sS'37.4276286:-122.1902495'
p747
V2015-2037 Sand Hill Rd, Stanford, CA 94305, USA
p748
sS'37.7697957:-122.4487192'
p749
V1603 Haight St, San Francisco, CA 94117, USA
p750
sS'37.4265335:-122.1767295'
p751
VVia Ortega Dr, Stanford, CA 94305, USA
p752
sS'37.4207727:-122.1695493'
p753
V548 Lane W, Stanford, CA 94305, USA
p754
sS'37.4209966:-122.1699006'
p755
V675 Lomita Dr, Stanford, CA 94305, USA
p756
sS'37.420929:-122.1698344'
p757
V675 Lomita Dr, Stanford, CA 94305, USA
p758
sS'37.4231797:-122.1861086'
p759
VFremont Rd, Stanford, CA 94305, USA
p760
sS'37.4270878:-122.169874'
p761
VEscondido Rd, Palo Alto, CA 94305, USA
p762
sS'37.4209187:-122.1700123'
p763
V675 Lomita Dr, Stanford, CA 94305, USA
p764
sS'37.4384497:-122.1591524'
p765
V855 El Camino Real, Palo Alto, CA 94301, USA
p766
sS'37.4259852:-122.1684187'
p767
V488 Escondido Mall, Stanford, CA 94305, USA
p768
sS'37.4212976:-122.1627974'
p769
V539 Cowell Ln, Stanford, CA 94305, USA
p770
sS'37.447402:-122.15968'
p771
V444 University Ave, Palo Alto, CA 94301, USA
p772
sS'37.4225886:-122.1701158'
p773
V438-498 Mayfield Ave, Stanford, CA 94305, USA
p774
sS'37.4244955:-122.1704565'
p775
V459 Lagunita Dr, Stanford, CA 94305, USA
p776
sS'37.4208927:-122.1695131'
p777
V551-599 Lane W, Stanford, CA 94305, USA
p778
sS'37.7698079:-122.4495638'
p779
V1654 Haight St, San Francisco, CA 94117, USA
p780
sS'37.4378789:-122.1602105'
p781
V891-899 Betty Meltzer Memorial Hwy, Palo Alto, CA 94301, USA
p782
sS'37.4282659:-122.1753296'
p783
V473 Via Ortega, Stanford, CA 94305, USA
p784
sS'37.4290985:-122.1728539'
p785
VWilliam R. Hewlett Teaching Center, 370 Serra Mall, Stanford, CA 94305, USA
p786
sS'37.4377907:-122.2043579'
p787
V1470 Franks Ln, Menlo Park, CA 94025, USA
p788
sS'37.4208599:-122.1699363'
p789
V675 Lomita Dr, Stanford, CA 94305, USA
p790
sS'37.4210101:-122.1705093'
p791
V675 Lomita Dr, Stanford, CA 94305, USA
p792
sS'37.4209219:-122.1699641'
p793
V675 Lomita Dr, Stanford, CA 94305, USA
p794
sS'37.4210911:-122.1694024'
p795
V551-599 Lane W, Stanford, CA 94305, USA
p796
sS'37.428306:-122.1715893'
p797
V452 Lomita Mall, Stanford, CA 94305, USA
p798
sS'37.4155816:-122.1279013'
p799
V4007-4047 El Camino Real, Palo Alto, CA 94306, USA
p800
sS'37.4209957:-122.1700751'
p801
V675 Lomita Dr, Stanford, CA 94305, USA
p802
sS'37.4208901:-122.1699404'
p803
V675 Lomita Dr, Stanford, CA 94305, USA
p804
sS'37.420809:-122.1701991'
p805
V675 Lomita Dr, Stanford, CA 94305, USA
p806
sS'37.4377618:-122.2043592'
p807
V1470-1490 Franks Ln, West Menlo Park, CA 94025, USA
p808
sS'37.4211859:-122.1700674'
p809
V675 Lomita Dr, Stanford, CA 94305, USA
p810
sS'37.4208617:-122.1699254'
p811
V675 Lomita Dr, Stanford, CA 94305, USA
p812
sS'37.4218279:-122.1681462'
p813
VHFD, Stanford, CA 94305, USA
p814
sS'37.4321932:-122.1793168'
p815
V1265 Welch Rd, Palo Alto, CA 94305, USA
p816
sS'37.4208185:-122.1699808'
p817
V675 Lomita Dr, Stanford, CA 94305, USA
p818
sS'37.4210574:-122.1698799'
p819
V675 Lomita Dr, Stanford, CA 94305, USA
p820
sS'37.4239774:-122.1672941'
p821
VCrown Quadrangle, 559 Nathan Abbott Way, Stanford, CA 94305, USA
p822
sS'37.4208665:-122.1699838'
p823
V675 Lomita Dr, Stanford, CA 94305, USA
p824
sS'37.4273468:-122.1710981'
p825
VLomita Mall, Stanford, CA 94305, USA
p826
sS'37.4256157:-122.1730054'
p827
VLomita Mall, Stanford, CA 94305, USA
p828
sS'37.4216904:-122.1693747'
p829
V501-549 Lane W, Stanford, CA 94305, USA
p830
sS'37.4208214:-122.1701138'
p831
V675 Lomita Dr, Stanford, CA 94305, USA
p832
sS'37.4210696:-122.1706313'
p833
V675 Lomita Dr, Stanford, CA 94305, USA
p834
sS'37.4208623:-122.1700289'
p835
V675 Lomita Dr, Stanford, CA 94305, USA
p836
sS'37.4208855:-122.1699888'
p837
V675 Lomita Dr, Stanford, CA 94305, USA
p838
sS'37.4208596:-122.1700365'
p839
V675 Lomita Dr, Stanford, CA 94305, USA
p840
sS'37.4132229:-122.1252259'
p841
V4126 El Camino Way, Palo Alto, CA 94306, USA
p842
sS'37.4227918:-122.1697499'
p843
V500 Mayfield Ave, Stanford, CA 94305, USA
p844
sS'37.4598776:-122.1360011'
p845
V1775 E Bayshore Rd, East Palo Alto, CA 94303, USA
p846
sS'37.4240655:-122.1704227'
p847
V459 Lagunita Dr, Stanford, CA 94305, USA
p848
sS'37.4322:-122.1713034'
p849
V355 Roth Way, Palo Alto, CA 94304, USA
p850
sS'37.4401999:-122.1729831'
p851
V313-331 Arboretum Rd, Palo Alto, CA 94304, USA
p852
sS'37.4300661:-122.1731549'
p853
VGates Computer Science, 353 Serra Mall, Stanford, CA 94305, USA
p854
sS'37.420824:-122.1701719'
p855
V675 Lomita Dr, Stanford, CA 94305, USA
p856
sS'37.4267864:-122.185235'
p857
VFremont Rd, Stanford, CA 94305, USA
p858
sS'37.4208907:-122.1698804'
p859
V675 Lomita Dr, Stanford, CA 94305, USA
p860
sS'37.4297964:-122.1730509'
p861
V353 Serra Mall, Stanford, CA 94305, USA
p862
sS'37.4208012:-122.1700724'
p863
V675 Lomita Dr, Stanford, CA 94305, USA
p864
sS'37.4218643:-122.1682005'
p865
VHFD, Stanford, CA 94305, USA
p866
sS'37.7664084:-122.4478366'
p867
V822-826 Clayton St, San Francisco, CA 94117, USA
p868
sS'37.4278845:-122.1719007'
p869
VLomita Mall, Stanford, CA 94305, USA
p870
sS'37.4240983:-122.1958673'
p871
V125 Sharon Park Dr, Menlo Park, CA 94025, USA
p872
sS'37.4385156:-122.1590087'
p873
V855 El Camino Real, Palo Alto, CA 94301, USA
p874
sS'37.4354526:-122.1679031'
p875
V10-26 Palm Dr, Stanford, CA 94305, USA
p876
sS'37.4378755:-122.1602825'
p877
V855 El Camino Real, Palo Alto, CA 94301, USA
p878
sS'37.4256791:-122.1925467'
p879
V2101-2121 Sand Hill Rd, West Menlo Park, CA 94025, USA
p880
sS'37.4304636:-122.1712393'
p881
V376 Lomita Dr, Stanford, CA 94305, USA
p882
sS'37.4255724:-122.1668774'
p883
V530 Escondido Mall, Stanford, CA 94305, USA
p884
sS'37.4209044:-122.1690549'
p885
V551-599 Lane W, Stanford, CA 94305, USA
p886
sS'37.4425083:-122.1706416'
p887
VPalo Alto, CA 94304, USA
p888
sS'37.4209548:-122.1698071'
p889
V548-598 Lane W, Stanford, CA 94305, USA
p890
sS'37.420878:-122.1700221'
p891
V675 Lomita Dr, Stanford, CA 94305, USA
p892
sS'37.4217876:-122.1616945'
p893
V702 Bowdoin Ln, Stanford, CA 94305, USA
p894
sS'37.4384299:-122.1597227'
p895
VBuilding 2, 75, 855 El Camino Real, Palo Alto, CA 94301, USA
p896
sS'37.4209021:-122.1699032'
p897
V675 Lomita Dr, Stanford, CA 94305, USA
p898
sS'37.4208664:-122.1698846'
p899
V675 Lomita Dr, Stanford, CA 94305, USA
p900
sS'37.4209016:-122.1699787'
p901
V675 Lomita Dr, Stanford, CA 94305, USA
p902
sS'37.4446787:-122.1611717'
p903
V581 Ramona St, Palo Alto, CA 94301, USA
p904
sS'37.4209138:-122.1699566'
p905
V675 Lomita Dr, Stanford, CA 94305, USA
p906
sS'37.4214015:-122.1692898'
p907
V551-599 Lane W, Stanford, CA 94305, USA
p908
sS'37.5788448:-122.3491347'
p909
V398 Primrose Rd, Burlingame, CA 94010, USA
p910
sS'37.4451378:-122.1708012'
p911
V160 Stanford Shopping Center, Palo Alto, CA 94304, USA
p912
sS'37.4319338:-122.1792696'
p913
V1265 Welch Rd, Stanford, CA 94305, USA
p914
sS'37.4210608:-122.1700588'
p915
V675 Lomita Dr, Stanford, CA 94305, USA
p916
sS'37.4281312:-122.1710241'
p917
V380 Serra Mall, Stanford, CA 94305, USA
p918
sS'37.4203785:-122.1706928'
p919
V1035 Campus Drive, Stanford, CA 94305, USA
p920
sS'37.4209311:-122.0932478'
p921
V1159 N Rengstorff Ave, Mountain View, CA 94043, USA
p922
sS'37.4306037:-122.1711734'
p923
V376 Lomita Dr, Stanford, CA 94305, USA
p924
sS'37.4216337:-122.1715623'
p925
V657-699 Lomita Dr, Stanford, CA 94305, USA
p926
sS'37.4212996:-122.1700325'
p927
V675 Lomita Dr, Stanford, CA 94305, USA
p928
sS'37.4305898:-122.171233'
p929
V376 Lomita Dr, Stanford, CA 94305, USA
p930
sS'37.4244836:-122.1706195'
p931
V459 Lagunita Dr, Stanford, CA 94305, USA
p932
sS'37.421651:-122.1837264'
p933
V91 Links Rd, Stanford, CA 94305, USA
p934
sS'37.4261929:-122.1669831'
p935
VSulair Coffee Kiosk, 571 Escondido Mall, Stanford, CA 94305, USA
p936
sS'37.4251332:-122.1705112'
p937
V520 Lasuen Mall, Stanford, CA 94305, USA
p938
sS'37.4380185:-122.1584994'
p939
V15-43 Embarcadero Rd, Palo Alto, CA 94301, USA
p940
sS'37.428582:-122.1755653'
p941
V475 Via Ortega, Palo Alto, CA 94305, USA
p942
sS'37.4207705:-122.1702655'
p943
V675 Lomita Dr, Stanford, CA 94305, USA
p944
sS'37.4264314:-122.1594205'
p945
V737 Campus Drive, Stanford, CA 94305, USA
p946
sS'37.4208676:-122.1700899'
p947
V675 Lomita Dr, Stanford, CA 94305, USA
p948
sS'37.4236643:-122.1966222'
p949
V2122-2180 Sand Hill Rd, Menlo Park, CA 94025, USA
p950
sS'37.425538:-122.1775768'
p951
V324 Santa Teresa St, Stanford, CA 94305, USA
p952
sS'37.4374129:-122.203634'
p953
V1410 Franks Ln, Menlo Park, CA 94025, USA
p954
sS'37.4199722:-122.1736075'
p955
V1115 Campus Drive, Stanford, CA 94305, USA
p956
sS'37.4273055:-122.1708981'
p957
VWomen's Restroom, Stanford, CA 94305, USA
p958
sS'37.4256962:-122.1673834'
p959
V560 Escondido Mall, Stanford, CA 94305, USA
p960
sS'37.4214684:-122.1700691'
p961
V675 Lomita Dr, Stanford, CA 94305, USA
p962
sS'37.4261983:-122.1767936'
p963
VVia Ortega Dr, Stanford, CA 94305, USA
p964
sS'37.4391232:-122.1583135'
p965
VEmbarcadero Bike Path, Palo Alto, CA 94301, USA
p966
sS'37.4377019:-122.2040367'
p967
V1440-1460 Franks Ln, West Menlo Park, CA 94025, USA
p968
sS'37.4445351:-122.1631373'
p969
V169 University Ave, Palo Alto, CA 94301, USA
p970
sS'37.4235555:-122.1700173'
p971
V617-633 Lagunita Dr, Stanford, CA 94305, USA
p972
sS'37.428031:-122.1682867'
p973
V539-561 Lasuen Mall, Stanford, CA 94305, USA
p974
sS'37.4375606:-122.1597535'
p975
V1-13 Embarcadero Rd, Palo Alto, CA 94301, USA
p976
sS'37.4209832:-122.1698849'
p977
V675 Lomita Dr, Stanford, CA 94305, USA
p978
sS'37.4266575:-122.1934442'
p979
V2159 Santa Cruz Ave, Menlo Park, CA 94025, USA
p980
sS'37.7648612:-122.4322809'
p981
V2267-2269 Market St, San Francisco, CA 94114, USA
p982
sS'37.4206613:-122.1705849'
p983
V675 Lomita Dr, Stanford, CA 94305, USA
p984
sS'37.4209915:-122.16993'
p985
V675 Lomita Dr, Stanford, CA 94305, USA
p986
sS'37.4255777:-122.1671497'
p987
V530 Escondido Mall, Stanford, CA 94305, USA
p988
sS'37.429152:-122.1672263'
p989
V518 Memorial Way, Stanford, CA 94305, USA
p990
sS'37.4168433:-122.1299161'
p991
V3901 El Camino Real, Palo Alto, CA 94306, USA
p992
sS'37.4218099:-122.1680606'
p993
VHFD, Stanford, CA 94305, USA
p994
sS'37.4209304:-122.1699163'
p995
V675 Lomita Dr, Stanford, CA 94305, USA
p996
sS'37.4253375:-122.1681598'
p997
V488 Escondido Mall, Stanford, CA 94305, USA
p998
sS'37.426945:-122.1710398'
p999
VWomen's Restroom, Stanford, CA 94305, USA
p1000
sS'37.4209074:-122.1699738'
p1001
V675 Lomita Dr, Stanford, CA 94305, USA
p1002
sS'37.4260958:-122.1889966'
p1003
V2039-2045 Sand Hill Rd, Stanford, CA 94305, USA
p1004
sS'37.4377431:-122.2044116'
p1005
V1470-1490 Franks Ln, West Menlo Park, CA 94025, USA
p1006
sS'37.4208882:-122.1699774'
p1007
V675 Lomita Dr, Stanford, CA 94305, USA
p1008
sS'37.420876:-122.1700345'
p1009
V675 Lomita Dr, Stanford, CA 94305, USA
p1010
sS'37.4377223:-122.204407'
p1011
V1470-1490 Franks Ln, West Menlo Park, CA 94025, USA
p1012
sS'37.4208568:-122.1697557'
p1013
V551-599 Lane W, Stanford, CA 94305, USA
p1014
sS'37.4237345:-122.1702409'
p1015
V617 Lagunita Dr, Stanford, CA 94305, USA
p1016
sS'37.4265758:-122.1765614'
p1017
VVia Ortega Dr, Stanford, CA 94305, USA
p1018
sS'37.4242073:-122.1709089'
p1019
VTresidder Memorial Union, 459 Lagunita Dr, Stanford, CA 94305, USA
p1020
sS'37.42067:-122.1691569'
p1021
V677-699 Campus Drive, Stanford, CA 94305, USA
p1022
sS'37.4239336:-122.170776'
p1023
VTresidder Memorial Union, 459 Lagunita Dr, Stanford, CA 94305, USA
p1024
sS'37.4208264:-122.169704'
p1025
V551-599 Lane W, Stanford, CA 94305, USA
p1026
sS'37.4209116:-122.1698888'
p1027
V675 Lomita Dr, Stanford, CA 94305, USA
p1028
sS'37.4240005:-122.1707582'
p1029
VTresidder Memorial Union, 459 Lagunita Dr, Stanford, CA 94305, USA
p1030
sS'37.4209451:-122.1698761'
p1031
V675 Lomita Dr, Stanford, CA 94305, USA
p1032
sS'37.4197661:-122.1691768'
p1033
V502-550 San Juan St, Stanford, CA 94305, USA
p1034
sS'37.4344883:-122.2071171'
p1035
V2100 Cedar Ave, Menlo Park, CA 94025, USA
p1036
sS'37.4247746:-122.1706826'
p1037
V524 Duena St, Stanford, CA 94305, USA
p1038
sS'37.4415295:-122.1657172'
p1039
VBetty Meltzer Memorial Hwy & El Camino Real & Palm Dr, Palo Alto, CA 94305, USA
p1040
sS'37.4324108:-122.1635106'
p1041
V297 Galvez St, Stanford, CA 94305, USA
p1042
sS'37.4272597:-122.1907912'
p1043
V2015-2037 Sand Hill Rd, Stanford, CA 94305, USA
p1044
sS'37.4270421:-122.1698523'
p1045
VEscondido Rd, Palo Alto, CA 94305, USA
p1046
sS'37.4209384:-122.1700439'
p1047
V675 Lomita Dr, Stanford, CA 94305, USA
p1048
sS'37.4245778:-122.1701321'
p1049
V300-320 Lasuen Mall, Stanford, CA 94305, USA
p1050
sS'37.4403136:-122.1634807'
p1051
V627-675 Betty Meltzer Memorial Hwy, Palo Alto, CA 94301, USA
p1052
sS'37.4208873:-122.1700355'
p1053
V675 Lomita Dr, Stanford, CA 94305, USA
p1054
sS'37.4374427:-122.2037008'
p1055
V1420 Franks Ln, Menlo Park, CA 94025, USA
p1056
sS'37.4209237:-122.1701845'
p1057
V675 Lomita Dr, Stanford, CA 94305, USA
p1058
sS'37.421097:-122.1697944'
p1059
V548-598 Lane W, Stanford, CA 94305, USA
p1060
sS'37.4238284:-122.1704132'
p1061
V575-615 Lagunita Dr, Stanford, CA 94305, USA
p1062
sS'37.4209106:-122.1699708'
p1063
V675 Lomita Dr, Stanford, CA 94305, USA
p1064
sS'37.4164809:-122.1304036'
p1065
V3896 El Camino Real, Palo Alto, CA 94306, USA
p1066
sS'37.4209422:-122.1700359'
p1067
V675 Lomita Dr, Stanford, CA 94305, USA
p1068
sS'37.4282962:-122.1693805'
p1069
V450 Serra Mall, Stanford, CA 94305, USA
p1070
sS'37.4237585:-122.1704461'
p1071
V575-615 Lagunita Dr, Stanford, CA 94305, USA
p1072
sS'37.4306129:-122.1711426'
p1073
V376 Lomita Dr, Stanford, CA 94305, USA
p1074
sS'37.4209177:-122.1700103'
p1075
V675 Lomita Dr, Stanford, CA 94305, USA
p1076
sS'37.4209249:-122.1699893'
p1077
V675 Lomita Dr, Stanford, CA 94305, USA
p1078
sS'37.4209268:-122.1699624'
p1079
V675 Lomita Dr, Stanford, CA 94305, USA
p1080
sS'37.4209334:-122.1700163'
p1081
V675 Lomita Dr, Stanford, CA 94305, USA
p1082
sS'37.7662137:-122.4479134'
p1083
V835 Clayton St, San Francisco, CA 94117, USA
p1084
sS'37.4383399:-122.160435'
p1085
V855 El Camino Real, Palo Alto, CA 94301, USA
p1086
sS'37.4211036:-122.1701122'
p1087
V675 Lomita Dr, Stanford, CA 94305, USA
p1088
sS'37.4208994:-122.1699814'
p1089
V675 Lomita Dr, Stanford, CA 94305, USA
p1090
sS'37.4316616:-122.1790751'
p1091
V1265 Welch Rd, Palo Alto, CA 94305, USA
p1092
sS'37.425373:-122.1708712'
p1093
V536-572 Duena St, Stanford, CA 94305, USA
p1094
sS'37.434068:-122.1535734'
p1095
V31-59 Churchill Ave, Palo Alto, CA 94306, USA
p1096
sS'37.3958959:-122.101707'
p1097
V2098 CA-82, Mountain View, CA 94040, USA
p1098
sS'37.4251132:-122.1705328'
p1099
V520 Lasuen Mall, Stanford, CA 94305, USA
p1100
sS'37.4210342:-122.1698581'
p1101
V675 Lomita Dr, Stanford, CA 94305, USA
p1102
sS'37.4257269:-122.1921027'
p1103
V2183 Santa Cruz Ave, Menlo Park, CA 94025, USA
p1104
sS'37.4384237:-122.1595695'
p1105
VBuilding 2, 75, 855 El Camino Real, Palo Alto, CA 94301, USA
p1106
sS'37.4208786:-122.169958'
p1107
V675 Lomita Dr, Stanford, CA 94305, USA
p1108
sS'37.4441789:-122.1702716'
p1109
V82-98 Stanford Shopping Center, Palo Alto, CA 94304, USA
p1110
sS'37.4235877:-122.1970314'
p1111
V325 Sharon Park Dr, Menlo Park, CA 94025, USA
p1112
sS'37.7693292:-122.449561'
p1113
V16a Belvedere St, San Francisco, CA 94117, USA
p1114
sS'37.4204774:-122.1706604'
p1115
V1035 Campus Drive, Stanford, CA 94305, USA
p1116
sS'37.4198132:-122.1670092'
p1117
V701-707 Santa Ynez St, Stanford, CA 94305, USA
p1118
sS'37.4224278:-122.1710315'
p1119
V436 Mayfield Ave, Stanford, CA 94305, USA
p1120
sS'37.4290902:-122.1728893'
p1121
VWilliam R. Hewlett Teaching Center, 370 Serra Mall, Stanford, CA 94305, USA
p1122
sS'37.4209402:-122.1697731'
p1123
V551-599 Lane W, Stanford, CA 94305, USA
p1124
sS'37.4447961:-122.1708243'
p1125
V144 Stanford Shopping Center, Palo Alto, CA 94304, USA
p1126
sS'37.4209735:-122.1700022'
p1127
V675 Lomita Dr, Stanford, CA 94305, USA
p1128
sS'37.7879068:-122.408365'
p1129
V337 Powell St, San Francisco, CA 94102, USA
p1130
sS'37.4306397:-122.1712718'
p1131
V376 Lomita Dr, Stanford, CA 94305, USA
p1132
sS'37.4306578:-122.1710557'
p1133
V376 Lomita Dr, Stanford, CA 94305, USA
p1134
sS'37.4280165:-122.1686903'
p1135
V550 Lasuen Mall, Stanford, CA 94305, USA
p1136
sS'37.420912:-122.1699537'
p1137
V675 Lomita Dr, Stanford, CA 94305, USA
p1138
sS'37.4382987:-122.1588767'
p1139
V855 El Camino Real, Palo Alto, CA 94301, USA
p1140
sS'37.4261538:-122.1774087'
p1141
V285 Santa Teresa St, Stanford, CA 94305, USA
p1142
sS'37.4209432:-122.1700019'
p1143
V675 Lomita Dr, Stanford, CA 94305, USA
p1144
sS'37.419659:-122.1669875'
p1145
VLa Maison Francaise, 610 Mayfield Ave, Stanford, CA 94305, USA
p1146
sS'37.4244171:-122.1694595'
p1147
V531 Lasuen Mall, Stanford, CA 94305, USA
p1148
sS'37.4270056:-122.1674379'
p1149
V882-912 Crothers Way, Stanford, CA 94305, USA
p1150
sS'37.4291196:-122.1729375'
p1151
VWilliam R. Hewlett Teaching Center, 370 Serra Mall, Stanford, CA 94305, USA
p1152
sS'37.4208732:-122.1698885'
p1153
V675 Lomita Dr, Stanford, CA 94305, USA
p1154
sS'37.4263786:-122.16654'
p1155
V571 Lasuen Mall, Stanford, CA 94305, USA
p1156
sS'37.4212259:-122.1701792'
p1157
V675 Lomita Dr, Stanford, CA 94305, USA
p1158
sS'37.4212177:-122.1703561'
p1159
V675 Lomita Dr, Stanford, CA 94305, USA
p1160
sS'37.4366699:-122.2042618'
p1161
V1405 Wendy Way, Menlo Park, CA 94025, USA
p1162
sS'37.4379606:-122.1584273'
p1163
V15-43 Embarcadero Rd, Palo Alto, CA 94301, USA
p1164
sS'37.4304356:-122.2380125'
p1165
VJunipero Serra Fwy, Atherton, CA 94027, USA
p1166
sS'37.4278109:-122.1688927'
p1167
V526 Lasuen Mall, Stanford, CA 94305, USA
p1168
sS'37.4239085:-122.1964422'
p1169
V125 Sharon Park Dr, Menlo Park, CA 94025, USA
p1170
sS'37.4290689:-122.1728898'
p1171
VWilliam R. Hewlett Teaching Center, 370 Serra Mall, Stanford, CA 94305, USA
p1172
sS'37.4208781:-122.1698102'
p1173
V675 Lomita Dr, Stanford, CA 94305, USA
p1174
sS'37.4383143:-122.159148'
p1175
V855 El Camino Real, Palo Alto, CA 94301, USA
p1176
sS'37.4215615:-122.1700167'
p1177
V675 Lomita Dr, Stanford, CA 94305, USA
p1178
sS'37.4208269:-122.1700213'
p1179
V675 Lomita Dr, Stanford, CA 94305, USA
p1180
sS'37.4216919:-122.1699774'
p1181
V675 Lomita Dr, Stanford, CA 94305, USA
p1182
sS'37.4299621:-122.1730083'
p1183
VN - South Axis, Stanford, CA 94305, USA
p1184
sS'37.7880635:-122.4076502'
p1185
VThe Dewey Monument, San Francisco, CA 94108, USA
p1186
sS'37.4225678:-122.1700804'
p1187
V498 Mayfield Ave, Stanford, CA 94305, USA
p1188
sS'37.4232666:-122.1700786'
p1189
V635-699 Lagunita Dr, Stanford, CA 94305, USA
p1190
sS'37.4434224:-122.162194'
p1191
V167 Hamilton Ave, Palo Alto, CA 94301, USA
p1192
sS'37.4209315:-122.1699645'
p1193
V675 Lomita Dr, Stanford, CA 94305, USA
p1194
sS'37.435031:-122.2074759'
p1195
V2097 Cam De Los Robles, Menlo Park, CA 94025, USA
p1196
sS'37.4209943:-122.1701424'
p1197
V675 Lomita Dr, Stanford, CA 94305, USA
p1198
sS'37.4448627:-122.1706958'
p1199
V144 Stanford Shopping Center, Palo Alto, CA 94304, USA
p1200
sS'37.420287:-122.1719323'
p1201
V660 Lomita Ct, Stanford, CA 94305, USA
p1202
sS'37.4244982:-122.1703075'
p1203
V524 Lasuen Mall, Stanford, CA 94305, USA
p1204
sS'37.4283914:-122.163603'
p1205
VArguello Way, Stanford, CA 94305, USA
p1206
sS'37.4463999:-122.15959'
p1207
V560 Waverley St, Palo Alto, CA 94301, USA
p1208
sS'37.420884:-122.1698062'
p1209
V551-599 Lane W, Stanford, CA 94305, USA
p1210
sS'37.4209976:-122.1700562'
p1211
V675 Lomita Dr, Stanford, CA 94305, USA
p1212
sS'37.4386466:-122.159254'
p1213
V75, 855 El Camino Real, Palo Alto, CA 94301, USA
p1214
sS'37.484242:-122.2266286'
p1215
V1099 Middlefield Rd, Redwood City, CA 94063, USA
p1216
sS'37.4438532:-122.17228'
p1217
VPalo Alto, CA 94304, USA
p1218
sS'37.4377241:-122.2043945'
p1219
V1470-1490 Franks Ln, West Menlo Park, CA 94025, USA
p1220
sS'37.4214529:-122.1602121'
p1221
V730 Bowdoin St, Stanford, CA 94305, USA
p1222
sS'37.4287397:-122.1695734'
p1223
V450 Serra Mall, Stanford, CA 94305, USA
p1224
sS'37.4424416:-122.1594912'
p1225
V774 Emerson St, Palo Alto, CA 94301, USA
p1226
sS'37.4209235:-122.1699857'
p1227
V675 Lomita Dr, Stanford, CA 94305, USA
p1228
sS'37.4209393:-122.1699677'
p1229
V675 Lomita Dr, Stanford, CA 94305, USA
p1230
sS'37.4377924:-122.2044152'
p1231
V1490 Franks Ln, Menlo Park, CA 94025, USA
p1232
sS'37.4236353:-122.196804'
p1233
V325 Sharon Park Dr, Menlo Park, CA 94025, USA
p1234
sS'37.4342051:-122.1604504'
p1235
VStanford, CA 94305, USA
p1236
sS'37.420449:-122.170477'
p1237
V1035 Campus Drive, Stanford, CA 94305, USA
p1238
sS'37.429879:-122.1729522'
p1239
VN - South Axis, Stanford, CA 94305, USA
p1240
sS'37.4208187:-122.1701146'
p1241
V675 Lomita Dr, Stanford, CA 94305, USA
p1242
sS'37.4271034:-122.1699121'
p1243
VEscondido Rd, Palo Alto, CA 94305, USA
p1244
sS'37.4262932:-122.1695303'
p1245
V488 Escondido Mall, Stanford, CA 94305, USA
p1246
sS'37.4208084:-122.1701434'
p1247
V675 Lomita Dr, Stanford, CA 94305, USA
p1248
sS'37.4488699:-122.1934873'
p1249
V150-158 Valparaiso Ave, Menlo Park, CA 94027, USA
p1250
sS'37.4262754:-122.1733402'
p1251
V380 Panama Mall, Stanford, CA 94305, USA
p1252
sS'37.4208964:-122.1699281'
p1253
V675 Lomita Dr, Stanford, CA 94305, USA
p1254
sS'37.4209934:-122.1699792'
p1255
V675 Lomita Dr, Stanford, CA 94305, USA
p1256
sS'37.4210512:-122.1695769'
p1257
V551-599 Lane W, Stanford, CA 94305, USA
p1258
sS'37.4278353:-122.176042'
p1259
VS Service Rd, Stanford, CA 94305, USA
p1260
sS'37.7872924:-122.4034309'
p1261
V22 3rd St, San Francisco, CA 94103, USA
p1262
sS'37.4231455:-122.1701059'
p1263
V635 Lagunita Dr, Stanford, CA 94305, USA
p1264
sS'37.4236774:-122.1859252'
p1265
VFremont Rd, Stanford, CA 94305, USA
p1266
sS'37.423944:-122.1704988'
p1267
V575-615 Lagunita Dr, Stanford, CA 94305, USA
p1268
sS'37.42172:-122.1702319'
p1269
V675 Lomita Dr, Stanford, CA 94305, USA
p1270
sS'37.4200109:-122.174738'
p1271
VNarnia, 1135 Campus Drive, Stanford, CA 94305, USA
p1272
sS'37.7880832:-122.4077282'
p1273
VThe Dewey Monument, San Francisco, CA 94108, USA
p1274
sS'37.4261785:-122.1672963'
p1275
V571 Lasuen Mall, Stanford, CA 94305, USA
p1276
sS'37.4600424:-122.135571'
p1277
V1775 E Bayshore Rd, East Palo Alto, CA 94303, USA
p1278
sS'37.4213333:-122.1869861'
p1279
V198 Junipero Serra Blvd, Stanford, CA 94305, USA
p1280
sS'37.4205353:-122.1711187'
p1281
V670 Lomita Dr, Palo Alto, CA 94305, USA
p1282
sS'37.4380525:-122.1583199'
p1283
V15-43 Embarcadero Rd, Palo Alto, CA 94301, USA
p1284
sS'37.4377819:-122.2044009'
p1285
V1490 Franks Ln, Menlo Park, CA 94025, USA
p1286
sS'37.4267859:-122.1772104'
p1287
VArrillaga Outdoor Education and Recreation Center, 285 Santa Teresa St, Stanford, CA 94305, USA
p1288
sS'37.4396199:-122.151845'
p1289
V298 Embarcadero Rd, Palo Alto, CA 94301, USA
p1290
sS'37.4205647:-122.1708846'
p1291
V675 Lomita Dr, Stanford, CA 94305, USA
p1292
sS'37.4284485:-122.171246'
p1293
V380 Serra Mall, Stanford, CA 94305, USA
p1294
sS'37.4240701:-122.1706936'
p1295
VTresidder Memorial Union, 459 Lagunita Dr, Stanford, CA 94305, USA
p1296
sS'37.4279573:-122.1493885'
p1297
V1963 CA-82, Palo Alto, CA 94306, USA
p1298
sS'37.420853:-122.1699641'
p1299
V675 Lomita Dr, Stanford, CA 94305, USA
p1300
sS'37.4299215:-122.173057'
p1301
VGates Computer Science, 353 Serra Mall, Stanford, CA 94305, USA
p1302
sS'37.427321:-122.1711223'
p1303
VLomita Mall, Stanford, CA 94305, USA
p1304
sS'37.4214663:-122.1690857'
p1305
V551 Lane W, Stanford, CA 94305, USA
p1306
sS'37.4220169:-122.1703855'
p1307
V500 Lane W, Stanford, CA 94305, USA
p1308
sS'37.4444613:-122.1632793'
p1309
V165 University Ave, Palo Alto, CA 94301, USA
p1310
sS'37.4250354:-122.1706052'
p1311
V520 Lasuen Mall, Stanford, CA 94305, USA
p1312
sS'37.4203939:-122.1711178'
p1313
V680 Lomita Dr, Stanford, CA 94305, USA
p1314
sS'37.787968:-122.4081361'
p1315
VThe Dewey Monument, San Francisco, CA 94108, USA
p1316
sS'37.784012:-122.4270275'
p1317
V1-45 Cleary Ct, San Francisco, CA 94109, USA
p1318
sS'37.4293489:-122.1717945'
p1319
VLomita Mall, Stanford, CA 94305, USA
p1320
sS'37.4224517:-122.1700936'
p1321
V438-498 Mayfield Ave, Stanford, CA 94305, USA
p1322
sS'37.4241078:-122.1672791'
p1323
VCrown Quadrangle, 559 Nathan Abbott Way, Stanford, CA 94305, USA
p1324
sS'37.4208702:-122.1699693'
p1325
V675 Lomita Dr, Stanford, CA 94305, USA
p1326
sS'37.4208747:-122.1700127'
p1327
V675 Lomita Dr, Stanford, CA 94305, USA
p1328
sS'37.426249:-122.1773372'
p1329
V285 Santa Teresa St, Stanford, CA 94305, USA
p1330
sS'37.4253738:-122.1904892'
p1331
VSanta Cruz Ave, Stanford, CA 94305, USA
p1332
sS'37.4208731:-122.1700045'
p1333
V675 Lomita Dr, Stanford, CA 94305, USA
p1334
sS'37.4214149:-122.1697036'
p1335
V675 Lomita Dr, Stanford, CA 94305, USA
p1336
sS'37.4223581:-122.1693926'
p1337
V550 Mayfield Ave, Stanford, CA 94305, USA
p1338
sS'37.5474231:-122.3111592'
p1339
V2000-2098 Wyoming Way, San Mateo, CA 94403, USA
p1340
sS'37.4214091:-122.1698112'
p1341
V675 Lomita Dr, Stanford, CA 94305, USA
p1342
sS'37.4207549:-122.1701349'
p1343
V675 Lomita Dr, Stanford, CA 94305, USA
p1344
sS'37.4307982:-122.15414'
p1345
V1600 El Camino Real, Palo Alto, CA 94306, USA
p1346
sS'37.4212316:-122.170379'
p1347
V675 Lomita Dr, Stanford, CA 94305, USA
p1348
sS'37.4211583:-122.1700025'
p1349
V675 Lomita Dr, Stanford, CA 94305, USA
p1350
sS'37.4305825:-122.1712072'
p1351
V376 Lomita Dr, Stanford, CA 94305, USA
p1352
sS'37.4207958:-122.1699718'
p1353
V675 Lomita Dr, Stanford, CA 94305, USA
p1354
sS'37.4209471:-122.1698578'
p1355
V675 Lomita Dr, Stanford, CA 94305, USA
p1356
sS'37.4305628:-122.1712283'
p1357
V376 Lomita Dr, Stanford, CA 94305, USA
p1358
sS'37.4192119:-122.1348746'
p1359
V3490 CA-82, Palo Alto, CA 94306, USA
p1360
sS'37.4241994:-122.1708536'
p1361
VTresidder Memorial Union, 459 Lagunita Dr, Stanford, CA 94305, USA
p1362
sS'37.4236303:-122.1706889'
p1363
V575-615 Lagunita Dr, Stanford, CA 94305, USA
p1364
sS'37.4225128:-122.166461'
p1365
VCampus Drive, Stanford, CA 94305, USA
p1366
sS'37.4208409:-122.1699624'
p1367
V675 Lomita Dr, Stanford, CA 94305, USA
p1368
sS'37.4377793:-122.2044004'
p1369
V1470-1490 Franks Ln, West Menlo Park, CA 94025, USA
p1370
sS'37.4297524:-122.1962888'
p1371
V2054-2056 Santa Cruz Ave, West Menlo Park, CA 94025, USA
p1372
sS'37.4377124:-122.2043189'
p1373
V1460-1470 Franks Ln, West Menlo Park, CA 94025, USA
p1374
sS'37.4377863:-122.2043396'
p1375
V1470 Franks Ln, Menlo Park, CA 94025, USA
p1376
sS'37.4279542:-122.1701275'
p1377
V450 Serra Mall, Stanford, CA 94305, USA
p1378
sS'37.4208954:-122.1700093'
p1379
V675 Lomita Dr, Stanford, CA 94305, USA
p1380
sS'37.4322839:-122.1713326'
p1381
V355 Roth Way, Palo Alto, CA 94304, USA
p1382
sS'37.421544:-122.1695818'
p1383
V500 Lane W, Stanford, CA 94305, USA
p1384
sS'37.429182:-122.1742131'
p1385
VDavid Packard Electrical Engineering, 350 Serra Mall, Stanford, CA 94305, USA
p1386
sS'37.4279536:-122.1689252'
p1387
V450 Serra Mall, Stanford, CA 94305, USA
p1388
sS'37.4216719:-122.1700761'
p1389
V675 Lomita Dr, Stanford, CA 94305, USA
p1390
sS'37.4208498:-122.1698646'
p1391
V675 Lomita Dr, Stanford, CA 94305, USA
p1392
sS'37.4377336:-122.2043802'
p1393
V1470-1490 Franks Ln, West Menlo Park, CA 94025, USA
p1394
sS'37.4231163:-122.1699293'
p1395
V544 Lasuen Mall, Stanford, CA 94305, USA
p1396
sS'37.4210498:-122.170467'
p1397
V675 Lomita Dr, Stanford, CA 94305, USA
p1398
sS'37.4209033:-122.1697303'
p1399
V551-599 Lane W, Stanford, CA 94305, USA
p1400
sS'37.4413523:-122.1646783'
p1401
V300-716 Betty Meltzer Memorial Hwy, Palo Alto, CA 94301, USA
p1402
sS'37.4281932:-122.1758972'
p1403
VJerry Yang and Akiko Yamazaki Environment and Energy Building (Y2E2), 473 Via Ortega, Stanford, CA 94305, USA
p1404
sS'37.4257856:-122.1707007'
p1405
V439-451 Panama Mall, Stanford, CA 94305, USA
p1406
sS'37.4208284:-122.1696973'
p1407
V551-599 Lane W, Stanford, CA 94305, USA
p1408
sS'37.4376382:-122.2041339'
p1409
V1440-1460 Franks Ln, West Menlo Park, CA 94025, USA
p1410
sS'37.4226671:-122.1690088'
p1411
V543 Lasuen Mall, Stanford, CA 94305, USA
p1412
sS'37.4299127:-122.1729826'
p1413
VN - South Axis, Stanford, CA 94305, USA
p1414
sS'37.4235934:-122.1970651'
p1415
V325 Sharon Park Dr, Menlo Park, CA 94025, USA
p1416
sS'37.4423716:-122.1594633'
p1417
V774 Emerson St, Palo Alto, CA 94301, USA
p1418
sS'37.420617:-122.1702906'
p1419
V675 Lomita Dr, Stanford, CA 94305, USA
p1420
sS'37.429908:-122.1730602'
p1421
VN - South Axis, Stanford, CA 94305, USA
p1422
sS'37.4209115:-122.1699213'
p1423
V675 Lomita Dr, Stanford, CA 94305, USA
p1424
sS'37.4232737:-122.1702605'
p1425
V628 Lagunita Dr, Stanford, CA 94305, USA
p1426
sS'37.4249477:-122.1696024'
p1427
V323-327 Lasuen Mall, Stanford, CA 94305, USA
p1428
sS'37.4208867:-122.1699661'
p1429
V675 Lomita Dr, Stanford, CA 94305, USA
p1430
sS'37.4298537:-122.1730434'
p1431
VN - South Axis, Stanford, CA 94305, USA
p1432
sS'37.4309558:-122.1545677'
p1433
V1600 El Camino Real, Palo Alto, CA 94306, USA
p1434
sS'37.4208156:-122.1699978'
p1435
V675 Lomita Dr, Stanford, CA 94305, USA
p1436
sS'37.4377558:-122.2043384'
p1437
V1470-1490 Franks Ln, West Menlo Park, CA 94025, USA
p1438
sS'37.4209129:-122.1699068'
p1439
V675 Lomita Dr, Stanford, CA 94305, USA
p1440
sS'37.426561:-122.1708198'
p1441
V590 Escondido Mall, Stanford, CA 94305, USA
p1442
sS'37.4299904:-122.1710204'
p1443
V376 Lomita Dr, Stanford, CA 94305, USA
p1444
sS'37.594039:-122.3650088'
p1445
V1333 Old Bayshore Hwy, Burlingame, CA 94010, USA
p1446
sS'37.4255977:-122.1675295'
p1447
V488 Escondido Mall, Stanford, CA 94305, USA
p1448
sS'37.4199109:-122.1749059'
p1449
VNarnia, 1135 Campus Drive, Stanford, CA 94305, USA
p1450
sS'37.4265793:-122.1911857'
p1451
V2047-2051 Sand Hill Rd, Stanford, CA 94305, USA
p1452
sS'37.4226641:-122.1693815'
p1453
V501-545 Mayfield Ave, Stanford, CA 94305, USA
p1454
sS'37.4295583:-122.1675254'
p1455
V518 Memorial Way, Stanford, CA 94305, USA
p1456
sS'37.420933:-122.1699658'
p1457
V675 Lomita Dr, Stanford, CA 94305, USA
p1458
sS'37.4249923:-122.1892369'
p1459
V115 Junipero Serra Blvd, Stanford, CA 94305, USA
p1460
sS'37.4209319:-122.1699936'
p1461
V675 Lomita Dr, Stanford, CA 94305, USA
p1462
sS'37.430372:-122.1712773'
p1463
V376 Lomita Dr, Stanford, CA 94305, USA
p1464
sS'37.4224359:-122.1858291'
p1465
VPrivate Resid., 103 Junipero Serra Blvd, Stanford, CA 94305, USA
p1466
sS'37.4347722:-122.1678239'
p1467
V4-8 Palm Dr, Stanford, CA 94305, USA
p1468
sS'37.4286555:-122.1703355'
p1469
V450 Serra Mall, Stanford, CA 94305, USA
p1470
sS'37.4169149:-122.1300215'
p1471
V460-498 Ventura Ave, Palo Alto, CA 94306, USA
p1472
sS'37.4168242:-122.1303223'
p1473
V3886 El Camino Real, Palo Alto, CA 94306, USA
p1474
sS'37.4238327:-122.1703123'
p1475
V617 Lagunita Dr, Stanford, CA 94305, USA
p1476
sS'37.4264577:-122.1762418'
p1477
VVia Ortega Dr, Stanford, CA 94305, USA
p1478
sS'37.421033:-122.1700669'
p1479
V675 Lomita Dr, Stanford, CA 94305, USA
p1480
sS'37.4281135:-122.1670372'
p1481
V550 Serra Mall, Stanford, CA 94305, USA
p1482
sS'37.4210797:-122.1700249'
p1483
V675 Lomita Dr, Stanford, CA 94305, USA
p1484
sS'37.4264933:-122.1453143'
p1485
V325-413 New Mayfield Ln, Palo Alto, CA 94306, USA
p1486
sS'37.4298166:-122.1730856'
p1487
V353 Serra Mall, Stanford, CA 94305, USA
p1488
sS'37.4377674:-122.2044729'
p1489
V1470-1490 Franks Ln, West Menlo Park, CA 94025, USA
p1490
sS'37.4299253:-122.1730495'
p1491
VGates Computer Science, 353 Serra Mall, Stanford, CA 94305, USA
p1492
sS'37.4287599:-122.1689223'
p1493
V450 Serra Mall, Stanford, CA 94305, USA
p1494
sS'37.4219572:-122.1673885'
p1495
VCampus Drive, Stanford, CA 94305, USA
p1496
sS'37.4211514:-122.169963'
p1497
V675 Lomita Dr, Stanford, CA 94305, USA
p1498
sS'37.4208915:-122.1700255'
p1499
V675 Lomita Dr, Stanford, CA 94305, USA
p1500
sS'37.4211101:-122.169354'
p1501
V551-599 Lane W, Stanford, CA 94305, USA
p1502
sS'37.4177305:-122.1317876'
p1503
V3783 CA-82, Palo Alto, CA 94306, USA
p1504
sS'37.4208783:-122.169998'
p1505
V675 Lomita Dr, Stanford, CA 94305, USA
p1506
sS'37.4221962:-122.1707428'
p1507
V436 Mayfield Ave, Stanford, CA 94305, USA
p1508
sS'37.4237105:-122.1859557'
p1509
VFremont Rd, Stanford, CA 94305, USA
p1510
sS'37.4209069:-122.1700119'
p1511
V675 Lomita Dr, Stanford, CA 94305, USA
p1512
sS'37.4210208:-122.1700682'
p1513
V675 Lomita Dr, Stanford, CA 94305, USA
p1514
sS'37.429789:-122.1728463'
p1515
V371 Serra Mall, Stanford, CA 94305, USA
p1516
sS'37.7656762:-122.4312236'
p1517
V2213 Market St, San Francisco, CA 94114, USA
p1518
sS'37.4278936:-122.1702903'
p1519
V450 Serra Mall, Stanford, CA 94305, USA
p1520
sS'37.420998:-122.169988'
p1521
V675 Lomita Dr, Stanford, CA 94305, USA
p1522
sS'37.4466357:-122.1597776'
p1523
V558 Waverley St, Palo Alto, CA 94301, USA
p1524
sS'37.4309371:-122.1541984'
p1525
V1600 El Camino Real, Palo Alto, CA 94306, USA
p1526
sS'37.4449:-122.1618494'
p1527
V520 Ramona St, Palo Alto, CA 94301, USA
p1528
sS'37.4269623:-122.1673903'
p1529
V882-912 Crothers Way, Stanford, CA 94305, USA
p1530
sS'37.4281588:-122.1630257'
p1531
V635 Serra St, Stanford, CA 94305, USA
p1532
sS'37.4253555:-122.1602337'
p1533
V752 Campus Drive, Stanford, CA 94305, USA
p1534
sS'37.4272936:-122.1712099'
p1535
VLomita Mall, Stanford, CA 94305, USA
p1536
sS'37.4256425:-122.1674367'
p1537
V560 Escondido Mall, Stanford, CA 94305, USA
p1538
sS'37.4229263:-122.1668082'
p1539
V563 Salvatierra St, Stanford, CA 94305, USA
p1540
sS'37.437835:-122.2044111'
p1541
V1490 Franks Ln, Menlo Park, CA 94025, USA
p1542
sS'37.4182839:-122.1659473'
p1543
V717 Dolores, 717 Dolores St, Stanford, CA 94305, USA
p1544
sS'37.4258819:-122.1472604'
p1545
V2244-2280 Betty Meltzer Memorial Hwy, Palo Alto, CA 94306, USA
p1546
sS'37.4268847:-122.1712881'
p1547
VWomen's Restroom, Stanford, CA 94305, USA
p1548
sS'37.4210161:-122.1699747'
p1549
V675 Lomita Dr, Stanford, CA 94305, USA
p1550
sS'37.4464149:-122.1596048'
p1551
V560 Waverley St, Palo Alto, CA 94301, USA
p1552
sS'37.4223888:-122.1858726'
p1553
VPrivate Resid., 103 Junipero Serra Blvd, Stanford, CA 94305, USA
p1554
sS'37.4209164:-122.1699585'
p1555
V675 Lomita Dr, Stanford, CA 94305, USA
p1556
sS'37.4384847:-122.1595638'
p1557
VBuilding 2, 75, 855 El Camino Real, Palo Alto, CA 94301, USA
p1558
sS'37.4209156:-122.1695034'
p1559
V551-599 Lane W, Stanford, CA 94305, USA
p1560
sS'37.4209075:-122.170033'
p1561
V675 Lomita Dr, Stanford, CA 94305, USA
p1562
sS'37.4307233:-122.1540653'
p1563
V1600 El Camino Real, Palo Alto, CA 94306, USA
p1564
sS'37.427213:-122.1711554'
p1565
VWomen's Restroom, Stanford, CA 94305, USA
p1566
sS'37.4215698:-122.1697109'
p1567
V675 Lomita Dr, Stanford, CA 94305, USA
p1568
sS'37.4207253:-122.1693868'
p1569
V548-598 Lane W, Stanford, CA 94305, USA
p1570
sS'37.4260488:-122.1706762'
p1571
V524 Duena St, Stanford, CA 94305, USA
p1572
sS'37.4208614:-122.1698027'
p1573
V551-599 Lane W, Stanford, CA 94305, USA
p1574
sS'37.4376939:-122.2042659'
p1575
V1460-1470 Franks Ln, West Menlo Park, CA 94025, USA
p1576
sS'37.4302314:-122.16288'
p1577
V577 Campus Drive, Stanford, CA 94305, USA
p1578
sS'37.4228479:-122.170031'
p1579
V635-699 Lagunita Dr, Stanford, CA 94305, USA
p1580
sS'37.4209087:-122.170016'
p1581
V675 Lomita Dr, Stanford, CA 94305, USA
p1582
sS'37.4206735:-122.1698689'
p1583
V675 Lomita Dr, Stanford, CA 94305, USA
p1584
sS'37.4246545:-122.1707332'
p1585
VTresidder Memorial Union, 459 Lagunita Dr, Stanford, CA 94305, USA
p1586
sS'37.4208592:-122.1702048'
p1587
V675 Lomita Dr, Stanford, CA 94305, USA
p1588
sS'37.4208079:-122.1704153'
p1589
V675 Lomita Dr, Stanford, CA 94305, USA
p1590
sS'37.4376571:-122.2043545'
p1591
V1460-1470 Franks Ln, West Menlo Park, CA 94025, USA
p1592
sS'37.4209179:-122.16999'
p1593
V675 Lomita Dr, Stanford, CA 94305, USA
p1594
sS'37.4207894:-122.1698869'
p1595
V675 Lomita Dr, Stanford, CA 94305, USA
p1596
sS'37.4241916:-122.1708656'
p1597
VTresidder Memorial Union, 459 Lagunita Dr, Stanford, CA 94305, USA
p1598
sS'37.4206033:-122.1714402'
p1599
V680 Lomita Dr, Stanford, CA 94305, USA
p1600
sS'37.420872:-122.1700521'
p1601
V675 Lomita Dr, Stanford, CA 94305, USA
p1602
sS'37.4209485:-122.1696894'
p1603
V551-599 Lane W, Stanford, CA 94305, USA
p1604
sS'37.4241699:-122.1706714'
p1605
V459 Lagunita Dr, Stanford, CA 94305, USA
p1606
sS'37.4168878:-122.1301415'
p1607
V3897-3899 El Camino Real, Palo Alto, CA 94306, USA
p1608
sS'37.4209233:-122.1701389'
p1609
V675 Lomita Dr, Stanford, CA 94305, USA
p1610
sS'37.4229983:-122.1666093'
p1611
V563 Salvatierra St, Stanford, CA 94305, USA
p1612
sS'37.4290856:-122.1665008'
p1613
V551 Serra Mall, Stanford, CA 94305, USA
p1614
sS'37.4208614:-122.169875'
p1615
V675 Lomita Dr, Stanford, CA 94305, USA
p1616
sS'37.4378663:-122.1593192'
p1617
V29 Embarcadero Rd, Palo Alto, CA 94301, USA
p1618
sS'37.4177341:-122.1319875'
p1619
V3770 El Camino Real, Palo Alto, CA 94306, USA
p1620
sS'37.4384446:-122.1589208'
p1621
VBuilding 4, 855 El Camino Real, Palo Alto, CA 94301, USA
p1622
sS'37.420784:-122.1702995'
p1623
V675 Lomita Dr, Stanford, CA 94305, USA
p1624
sS'37.425942:-122.1817588'
p1625
VCampus Drive, Stanford, CA 94305, USA
p1626
sS'37.4210071:-122.1699085'
p1627
V675 Lomita Dr, Stanford, CA 94305, USA
p1628
sS'37.4272508:-122.1710886'
p1629
VWomen's Restroom, Stanford, CA 94305, USA
p1630
sS'37.4209144:-122.1700191'
p1631
V675 Lomita Dr, Stanford, CA 94305, USA
p1632
sS'37.4208976:-122.1698443'
p1633
V675 Lomita Dr, Stanford, CA 94305, USA
p1634
sS'37.424793:-122.1726743'
p1635
V424 Santa Teresa St, Stanford, CA 94305, USA
p1636
sS'37.7880195:-122.408664'
p1637
V345 Powell St, San Francisco, CA 94102, USA
p1638
sS'37.4208979:-122.1699528'
p1639
V675 Lomita Dr, Stanford, CA 94305, USA
p1640
sS'37.4273451:-122.1716673'
p1641
VLomita Mall, Stanford, CA 94305, USA
p1642
sS'37.4251673:-122.1847185'
p1643
VFremont Rd, Stanford, CA 94305, USA
p1644
sS'37.4213056:-122.1702344'
p1645
V675 Lomita Dr, Stanford, CA 94305, USA
p1646
sS'37.4212155:-122.1698819'
p1647
V675 Lomita Dr, Stanford, CA 94305, USA
p1648
sS'37.430674:-122.1782544'
p1649
V206-244 Panama St, Stanford, CA 94305, USA
p1650
sS'37.4247553:-122.1705677'
p1651
V524 Lasuen Mall, Stanford, CA 94305, USA
p1652
sS'37.4236606:-122.1972382'
p1653
V325 Sharon Park Dr, Menlo Park, CA 94025, USA
p1654
sS'37.4183102:-122.1660075'
p1655
V717-721 Dolores St, Stanford, CA 94305, USA
p1656
sS'37.764363:-122.4329365'
p1657
V2298 Market St, San Francisco, CA 94114, USA
p1658
sS'37.4209121:-122.1700853'
p1659
V675 Lomita Dr, Stanford, CA 94305, USA
p1660
sS'37.429028:-122.1714413'
p1661
V380 Serra Mall, Stanford, CA 94305, USA
p1662
sS'37.428565:-122.1732277'
p1663
VNorth-South Axis, Stanford, CA 94305, USA
p1664
sS'37.4273124:-122.1711027'
p1665
VEscondido Mall, Stanford, CA 94305, USA
p1666
sS'37.420885:-122.1699259'
p1667
V675 Lomita Dr, Stanford, CA 94305, USA
p1668
sS'37.4208938:-122.1697904'
p1669
V551-599 Lane W, Stanford, CA 94305, USA
p1670
sS'37.4286598:-122.1690907'
p1671
V450 Serra Mall, Stanford, CA 94305, USA
p1672
sS'37.4284642:-122.1754599'
p1673
VJerry Yang and Akiko Yamazaki Environment and Energy Building (Y2E2), 473 Via Ortega, Stanford, CA 94305, USA
p1674
sS'37.4232386:-122.1700287'
p1675
V635-699 Lagunita Dr, Stanford, CA 94305, USA
p1676
sS'37.42095:-122.1699742'
p1677
V675 Lomita Dr, Stanford, CA 94305, USA
p1678
sS'37.4208683:-122.1699214'
p1679
V675 Lomita Dr, Stanford, CA 94305, USA
p1680
sS'37.4381158:-122.1585553'
p1681
V855 El Camino Real, Palo Alto, CA 94301, USA
p1682
sS'37.4208216:-122.1697021'
p1683
V551-599 Lane W, Stanford, CA 94305, USA
p1684
sS'37.4444578:-122.1631414'
p1685
V171 University Ave, Palo Alto, CA 94301, USA
p1686
sS'37.443618:-122.1684271'
p1687
VPalo Alto, CA 94304, USA
p1688
sS'37.4281775:-122.172068'
p1689
VLomita Mall, Stanford, CA 94305, USA
p1690
sS'37.4246853:-122.1715813'
p1691
V486 Santa Teresa St, Stanford, CA 94305, USA
p1692
sS'37.438516:-122.1593469'
p1693
V75, 855 El Camino Real, Palo Alto, CA 94301, USA
p1694
sS'37.4210072:-122.1698355'
p1695
V675 Lomita Dr, Stanford, CA 94305, USA
p1696
sS'37.4472399:-122.1604497'
p1697
V403 University Ave, Palo Alto, CA 94301, USA
p1698
sS'37.4420817:-122.1592604'
p1699
V174-198 Homer Ave, Palo Alto, CA 94301, USA
p1700
sS'37.420845:-122.1698558'
p1701
V675 Lomita Dr, Stanford, CA 94305, USA
p1702
sS'37.4281316:-122.1712456'
p1703
VLomita Mall, Stanford, CA 94305, USA
p1704
sS'37.4217789:-122.1683372'
p1705
V567 Mayfield Ave, Stanford, CA 94305, USA
p1706
sS'37.4210208:-122.1702724'
p1707
V675 Lomita Dr, Stanford, CA 94305, USA
p1708
sS'37.4208379:-122.1696294'
p1709
V551-599 Lane W, Stanford, CA 94305, USA
p1710
sS'37.4208554:-122.1701523'
p1711
V675 Lomita Dr, Stanford, CA 94305, USA
p1712
sS'37.4209613:-122.1698629'
p1713
V675 Lomita Dr, Stanford, CA 94305, USA
p1714
sS'37.4096492:-122.1227341'
p1715
V4214 El Camino Real, Palo Alto, CA 94306, USA
p1716
sS'37.4533851:-122.1838798'
p1717
V638-646 Maloney St, Menlo Park, CA 94025, USA
p1718
sS'37.4303684:-122.1711622'
p1719
V376 Lomita Dr, Stanford, CA 94305, USA
p1720
sS'37.4137427:-122.1254226'
p1721
V4127 El Camino Real, Palo Alto, CA 94306, USA
p1722
sS'37.4208655:-122.169976'
p1723
V675 Lomita Dr, Stanford, CA 94305, USA
p1724
sS'37.4202948:-122.1673817'
p1725
V588-592 Mayfield Ave, Stanford, CA 94305, USA
p1726
sS'37.4388256:-122.1587935'
p1727
V855 El Camino Real, Palo Alto, CA 94301, USA
p1728
sS'37.4374344:-122.2029688'
p1729
V1851-1899 Valparaiso Ave, West Menlo Park, CA 94025, USA
p1730
sS'37.426207:-122.1768056'
p1731
VVia Ortega Dr, Stanford, CA 94305, USA
p1732
sS'37.4282259:-122.1667144'
p1733
V551 Serra Mall, Stanford, CA 94305, USA
p1734
sS'37.7822854:-122.4323289'
p1735
V1597 Ellis St, San Francisco, CA 94115, USA
p1736
sS'37.4259824:-122.1691112'
p1737
V368-412 Lasuen Mall, Stanford, CA 94305, USA
p1738
sS'37.4376927:-122.2044029'
p1739
V1470-1490 Franks Ln, West Menlo Park, CA 94025, USA
p1740
sS'37.4291006:-122.1664888'
p1741
V551 Serra Mall, Stanford, CA 94305, USA
p1742
sS'37.4210527:-122.1700796'
p1743
V675 Lomita Dr, Stanford, CA 94305, USA
p1744
sS'37.4375996:-122.2042622'
p1745
V1460-1470 Franks Ln, West Menlo Park, CA 94025, USA
p1746
sS'37.4209255:-122.1699244'
p1747
V675 Lomita Dr, Stanford, CA 94305, USA
p1748
sS'37.4374696:-122.203901'
p1749
V1420-1430 Franks Ln, West Menlo Park, CA 94025, USA
p1750
sS'37.4440876:-122.1634133'
p1751
V498 High St, Palo Alto, CA 94301, USA
p1752
sS'37.4208886:-122.1698367'
p1753
V675 Lomita Dr, Stanford, CA 94305, USA
p1754
sS'37.4208236:-122.1700543'
p1755
V675 Lomita Dr, Stanford, CA 94305, USA
p1756
sS'37.4208378:-122.1700547'
p1757
V675 Lomita Dr, Stanford, CA 94305, USA
p1758
sS'37.4284428:-122.1755612'
p1759
VJerry Yang and Akiko Yamazaki Environment and Energy Building (Y2E2), 473 Via Ortega, Stanford, CA 94305, USA
p1760
sS'37.4241184:-122.1673306'
p1761
VCrown Quadrangle, 559 Nathan Abbott Way, Stanford, CA 94305, USA
p1762
sS'37.4209311:-122.1700241'
p1763
V675 Lomita Dr, Stanford, CA 94305, USA
p1764
sS'37.4377872:-122.2043742'
p1765
V1470 Franks Ln, Menlo Park, CA 94025, USA
p1766
sS'37.4259451:-122.1925221'
p1767
V2183 Santa Cruz Ave, Menlo Park, CA 94025, USA
p1768
sS'37.4383541:-122.15956'
p1769
VBuilding 2, 75, 855 El Camino Real, Palo Alto, CA 94301, USA
p1770
sS'37.4209517:-122.1695644'
p1771
V551-599 Lane W, Stanford, CA 94305, USA
p1772
sS'37.4271623:-122.1711278'
p1773
VWomen's Restroom, Stanford, CA 94305, USA
p1774
sS'37.4485174:-122.2311607'
p1775
V2105-2139 Alameda de las Pulgas, Redwood City, CA 94061, USA
p1776
sS'37.4209355:-122.1699525'
p1777
V675 Lomita Dr, Stanford, CA 94305, USA
p1778
sS'37.4212162:-122.1693271'
p1779
V551-599 Lane W, Stanford, CA 94305, USA
p1780
sS'37.4385451:-122.1594348'
p1781
V75, 855 El Camino Real, Palo Alto, CA 94301, USA
p1782
sS'37.4206038:-122.1690133'
p1783
V1018 Campus Drive, Stanford, CA 94305, USA
p1784
sS'37.427712:-122.1764073'
p1785
V401-499 Via Ortega, Stanford, CA 94305, USA
p1786
sS'37.4249415:-122.1706936'
p1787
V524 Duena St, Stanford, CA 94305, USA
p1788
sS'37.420818:-122.1700662'
p1789
V675 Lomita Dr, Stanford, CA 94305, USA
p1790
sS'37.4209458:-122.1699343'
p1791
V675 Lomita Dr, Stanford, CA 94305, USA
p1792
sS'37.420816:-122.1698581'
p1793
V675 Lomita Dr, Stanford, CA 94305, USA
p1794
sS'37.4274197:-122.171036'
p1795
VLomita Mall, Stanford, CA 94305, USA
p1796
sS'37.4600069:-122.1358207'
p1797
V1771 E Bayshore Rd, East Palo Alto, CA 94303, USA
p1798
sS'37.4380558:-122.1584159'
p1799
V15-43 Embarcadero Rd, Palo Alto, CA 94301, USA
p1800
sS'37.4244614:-122.1705699'
p1801
V459 Lagunita Dr, Stanford, CA 94305, USA
p1802
sS'37.4200932:-122.1671796'
p1803
V588-592 Mayfield Ave, Stanford, CA 94305, USA
p1804
sS'37.4379482:-122.1584884'
p1805
V15-43 Embarcadero Rd, Palo Alto, CA 94301, USA
p1806
sS'37.4205896:-122.170443'
p1807
V675 Lomita Dr, Stanford, CA 94305, USA
p1808
sS'37.4306093:-122.1711998'
p1809
V376 Lomita Dr, Stanford, CA 94305, USA
p1810
sS'37.4240386:-122.1971793'
p1811
V325m Sharon Park Dr, Menlo Park, CA 94025, USA
p1812
sS'37.4282294:-122.1667147'
p1813
V551 Serra Mall, Stanford, CA 94305, USA
p1814
sS'37.4264139:-122.1672826'
p1815
V557 Escondido Mall, Stanford, CA 94305, USA
p1816
sS'37.437633:-122.204387'
p1817
V1461-1471 Franks Ln, West Menlo Park, CA 94025, USA
p1818
sS'37.4210198:-122.1700602'
p1819
V675 Lomita Dr, Stanford, CA 94305, USA
p1820
sS'37.425043:-122.1694095'
p1821
V329-333 Lasuen Mall, Stanford, CA 94305, USA
p1822
sS'37.424597:-122.1705537'
p1823
V459 Lagunita Dr, Stanford, CA 94305, USA
p1824
sS'37.4208823:-122.1700123'
p1825
V675 Lomita Dr, Stanford, CA 94305, USA
p1826
sS'37.7695795:-122.4494509'
p1827
V1645 Haight St, San Francisco, CA 94117, USA
p1828
sS'37.4246207:-122.1705522'
p1829
V459 Lagunita Dr, Stanford, CA 94305, USA
p1830
sS'37.4209248:-122.1699029'
p1831
V675 Lomita Dr, Stanford, CA 94305, USA
p1832
sS'37.4217294:-122.1686739'
p1833
V564 Mayfield Ave, Stanford, CA 94305, USA
p1834
sS'37.4444008:-122.1724955'
p1835
V352 Stanford Shopping Center, Palo Alto, CA 94304, USA
p1836
sS'37.4208536:-122.1702336'
p1837
V675 Lomita Dr, Stanford, CA 94305, USA
p1838
sS'37.4209326:-122.1699756'
p1839
V675 Lomita Dr, Stanford, CA 94305, USA
p1840
sS'37.422732:-122.1702165'
p1841
V500 Mayfield Ave, Stanford, CA 94305, USA
p1842
sS'37.4208308:-122.17006'
p1843
V675 Lomita Dr, Stanford, CA 94305, USA
p1844
sS'37.4361584:-122.2009025'
p1845
V1304 Orange Ave, Menlo Park, CA 94025, USA
p1846
sS'37.4248237:-122.1904017'
p1847
V103-109 Junipero Serra Blvd, Stanford, CA 94305, USA
p1848
sS'37.4217235:-122.1685713'
p1849
V567 Mayfield Ave, Stanford, CA 94305, USA
p1850
sS'37.4289683:-122.1727201'
p1851
VWilliam R. Hewlett Teaching Center, 370 Serra Mall, Stanford, CA 94305, USA
p1852
sS'37.5783148:-122.3488297'
p1853
V343 Primrose Rd, Burlingame, CA 94010, USA
p1854
sS'37.4473972:-122.1592007'
p1855
V457 Hamilton Ave, Palo Alto, CA 94301, USA
p1856
sS'37.4208183:-122.1699119'
p1857
V675 Lomita Dr, Stanford, CA 94305, USA
p1858
sS'37.4342429:-122.1606844'
p1859
VStanford, CA 94305, USA
p1860
sS'37.4210496:-122.1699825'
p1861
V675 Lomita Dr, Stanford, CA 94305, USA
p1862
sS'37.4198051:-122.1740223'
p1863
V1115 Campus Drive, Stanford, CA 94305, USA
p1864
sS'37.4208398:-122.1699248'
p1865
V675 Lomita Dr, Stanford, CA 94305, USA
p1866
sS'37.4215672:-122.1694858'
p1867
V501-549 Lane W, Stanford, CA 94305, USA
p1868
sS'37.4236611:-122.1971417'
p1869
V325 Sharon Park Dr, Menlo Park, CA 94025, USA
p1870
sS'37.4209039:-122.1699408'
p1871
V675 Lomita Dr, Stanford, CA 94305, USA
p1872
sS'37.4209339:-122.1699475'
p1873
V675 Lomita Dr, Stanford, CA 94305, USA
p1874
sS'37.4284398:-122.1755222'
p1875
VJerry Yang and Akiko Yamazaki Environment and Energy Building (Y2E2), 473 Via Ortega, Stanford, CA 94305, USA
p1876
sS'37.4214729:-122.1703717'
p1877
V675 Lomita Dr, Stanford, CA 94305, USA
p1878
sS'37.453428:-122.1826207'
p1879
V1090 CA-82, Menlo Park, CA 94025, USA
p1880
sS'37.4207863:-122.1698208'
p1881
V675 Lomita Dr, Stanford, CA 94305, USA
p1882
sS'37.4239412:-122.1709798'
p1883
VTresidder Memorial Union, 459 Lagunita Dr, Stanford, CA 94305, USA
p1884
sS'37.437923:-122.1603027'
p1885
V855 El Camino Real, Palo Alto, CA 94301, USA
p1886
sS'37.4209521:-122.1689106'
p1887
V701-745 Campus Drive, Stanford, CA 94305, USA
p1888
sS'37.4287598:-122.1631021'
p1889
VZambrano Hall, 641 Knight Way, Stanford, CA 94305, USA
p1890
sS'37.4208656:-122.1700497'
p1891
V675 Lomita Dr, Stanford, CA 94305, USA
p1892
sS'37.426389:-122.1702014'
p1893
V590 Escondido Mall, Stanford, CA 94305, USA
p1894
sS'37.4211419:-122.1701848'
p1895
V675 Lomita Dr, Stanford, CA 94305, USA
p1896
sS'37.4441213:-122.1633271'
p1897
V150 University Ave, Palo Alto, CA 94301, USA
p1898
sS'37.4209416:-122.1698828'
p1899
V675 Lomita Dr, Stanford, CA 94305, USA
p1900
sS'37.420922:-122.1700674'
p1901
V675 Lomita Dr, Stanford, CA 94305, USA
p1902
sS'37.4247581:-122.170413'
p1903
V524 Lasuen Mall, Stanford, CA 94305, USA
p1904
sS'37.4216655:-122.1700034'
p1905
V675 Lomita Dr, Stanford, CA 94305, USA
p1906
sS'37.4306116:-122.171229'
p1907
V376 Lomita Dr, Stanford, CA 94305, USA
p1908
sS'37.4204981:-122.170682'
p1909
V675 Lomita Dr, Stanford, CA 94305, USA
p1910
sS'37.4461259:-122.158871'
p1911
V618-640 Waverley St, Palo Alto, CA 94301, USA
p1912
sS'37.4212215:-122.1695528'
p1913
V548-598 Lane W, Stanford, CA 94305, USA
p1914
sS'37.4207728:-122.1699458'
p1915
V675 Lomita Dr, Stanford, CA 94305, USA
p1916
sS'37.420939:-122.1699286'
p1917
V675 Lomita Dr, Stanford, CA 94305, USA
p1918
sS'37.4209054:-122.1700572'
p1919
V675 Lomita Dr, Stanford, CA 94305, USA
p1920
sS'37.424975:-122.1703455'
p1921
V520 Lasuen Mall, Stanford, CA 94305, USA
p1922
sS'37.4209465:-122.1690823'
p1923
V551-599 Lane W, Stanford, CA 94305, USA
p1924
sS'37.4209154:-122.1700135'
p1925
V675 Lomita Dr, Stanford, CA 94305, USA
p1926
sS'37.420818:-122.1700576'
p1927
V675 Lomita Dr, Stanford, CA 94305, USA
p1928
sS'37.4208813:-122.169999'
p1929
V675 Lomita Dr, Stanford, CA 94305, USA
p1930
sS'37.4245847:-122.1884344'
p1931
V115-149 Junipero Serra Blvd, Stanford, CA 94305, USA
p1932
sS'37.4208615:-122.1700264'
p1933
V675 Lomita Dr, Stanford, CA 94305, USA
p1934
sS'37.5940431:-122.3649153'
p1935
V1333 Old Bayshore Hwy, Burlingame, CA 94010, USA
p1936
sS'37.4210078:-122.1692828'
p1937
V551-599 Lane W, Stanford, CA 94305, USA
p1938
sS'37.4244486:-122.1703425'
p1939
V459 Lagunita Dr, Stanford, CA 94305, USA
p1940
sS'37.4208239:-122.1699879'
p1941
V675 Lomita Dr, Stanford, CA 94305, USA
p1942
sS'37.4299685:-122.1730436'
p1943
VGates Computer Science, 353 Serra Mall, Stanford, CA 94305, USA
p1944
sS'37.4208414:-122.1700489'
p1945
V675 Lomita Dr, Stanford, CA 94305, USA
p1946
sS'37.4208911:-122.1698258'
p1947
V675 Lomita Dr, Stanford, CA 94305, USA
p1948
sS'37.4272751:-122.169415'
p1949
V526 Lasuen Mall, Stanford, CA 94305, USA
p1950
sS'37.4443825:-122.1705951'
p1951
V126-136 Stanford Dr, Palo Alto, CA 94304, USA
p1952
sS'37.4378169:-122.2045037'
p1953
V1490-1498 Franks Ln, West Menlo Park, CA 94025, USA
p1954
sS'37.7693893:-122.4495086'
p1955
V14a Belvedere St, San Francisco, CA 94117, USA
p1956
sS'37.4378274:-122.2043957'
p1957
V1490 Franks Ln, Menlo Park, CA 94025, USA
p1958
sS'37.7873598:-122.4087784'
p1959
V348-366 Geary St, San Francisco, CA 94102, USA
p1960
sS'37.4240734:-122.1705942'
p1961
V459 Lagunita Dr, Stanford, CA 94305, USA
p1962
sS'37.4208933:-122.1699388'
p1963
V675 Lomita Dr, Stanford, CA 94305, USA
p1964
sS'37.4234894:-122.1701364'
p1965
V617-633 Lagunita Dr, Stanford, CA 94305, USA
p1966
sS'37.4211077:-122.1699422'
p1967
V675 Lomita Dr, Stanford, CA 94305, USA
p1968
sS'37.4273841:-122.1723429'
p1969
VLomita Mall, Stanford, CA 94305, USA
p1970
sS'37.4280532:-122.1721662'
p1971
VLomita Mall, Stanford, CA 94305, USA
p1972
sS'37.4209549:-122.1699182'
p1973
V675 Lomita Dr, Stanford, CA 94305, USA
p1974
sS'37.4216232:-122.169406'
p1975
V501-549 Lane W, Stanford, CA 94305, USA
p1976
sS'37.4452523:-122.162136'
p1977
V502 Ramona St, Palo Alto, CA 94301, USA
p1978
sS'37.4239327:-122.1958311'
p1979
V125 Sharon Park Dr, Menlo Park, CA 94025, USA
p1980
sS'37.452016:-122.1909183'
p1981
V92 Valparaiso Ave, Menlo Park, CA 94027, USA
p1982
sS'37.4295482:-122.1710988'
p1983
V393 Serra Mall, Stanford, CA 94305, USA
p1984
sS'37.4597207:-122.136251'
p1985
V1775 E Bayshore Rd, East Palo Alto, CA 94303, USA
p1986
sS'37.7842599:-122.4271067'
p1987
V66 Cleary Ct, San Francisco, CA 94109, USA
p1988
sS'37.4235582:-122.1703194'
p1989
V617-633 Lagunita Dr, Stanford, CA 94305, USA
p1990
sS'37.4251938:-122.1709165'
p1991
V536-572 Duena St, Stanford, CA 94305, USA
p1992
sS'37.4256471:-122.1600831'
p1993
V752 Campus Drive, Stanford, CA 94305, USA
p1994
sS'37.4208792:-122.1699509'
p1995
V675 Lomita Dr, Stanford, CA 94305, USA
p1996
sS'37.4209106:-122.1700154'
p1997
V675 Lomita Dr, Stanford, CA 94305, USA
p1998
sS'37.4377869:-122.2045525'
p1999
V1490-1498 Franks Ln, West Menlo Park, CA 94025, USA
p2000
sS'37.4237117:-122.1703147'
p2001
V617 Lagunita Dr, Stanford, CA 94305, USA
p2002
sS'37.4215048:-122.1692029'
p2003
V551-599 Lane W, Stanford, CA 94305, USA
p2004
sS'37.4240781:-122.1697763'
p2005
V471 Lagunita Dr, Stanford, CA 94305, USA
p2006
sS'37.4249632:-122.1693709'
p2007
V519 Lasuen Mall, Stanford, CA 94305, USA
p2008
sS'37.4842241:-122.2266243'
p2009
V1099 Middlefield Rd, Redwood City, CA 94063, USA
p2010
sS'37.4209075:-122.1700089'
p2011
V675 Lomita Dr, Stanford, CA 94305, USA
p2012
sS'37.4308752:-122.1708232'
p2013
V376 Lomita Dr, Stanford, CA 94305, USA
p2014
sS'37.4376491:-122.204389'
p2015
V1461-1471 Franks Ln, West Menlo Park, CA 94025, USA
p2016
sS'37.4387777:-122.1580155'
p2017
V104, 855 El Camino Real, Palo Alto, CA 94301, USA
p2018
sS'37.4299564:-122.1732931'
p2019
VGates Computer Science, 353 Serra Mall, Stanford, CA 94305, USA
p2020
sS'37.437812:-122.204545'
p2021
V1490-1498 Franks Ln, West Menlo Park, CA 94025, USA
p2022
sS'37.44708:-122.1603998'
p2023
V502 Waverley St, Palo Alto, CA 94301, USA
p2024
sS'37.4241101:-122.1710962'
p2025
V459 Lagunita Dr, Stanford, CA 94305, USA
p2026
sS'37.5940034:-122.3649106'
p2027
V1333 Old Bayshore Hwy, Burlingame, CA 94010, USA
p2028
sS'37.4229425:-122.1652036'
p2029
VCampus Drive, Stanford, CA 94305, USA
p2030
sS'37.4208818:-122.1700294'
p2031
V675 Lomita Dr, Stanford, CA 94305, USA
p2032
sS'37.4292923:-122.1721826'
p2033
V390 Serra Mall, Stanford, CA 94305, USA
p2034
sS'37.4463198:-122.1598233'
p2035
V550 Waverley St, Palo Alto, CA 94301, USA
p2036
sS'37.4443601:-122.1708262'
p2037
VPalo Alto, CA 94304, USA
p2038
sS'37.4473164:-122.1596825'
p2039
V432 University Ave, Palo Alto, CA 94301, USA
p2040
sS'37.4209171:-122.1696524'
p2041
V551-599 Lane W, Stanford, CA 94305, USA
p2042
sS'37.4385731:-122.1594312'
p2043
V75, 855 El Camino Real, Palo Alto, CA 94301, USA
p2044
sS'37.4209266:-122.1699593'
p2045
V675 Lomita Dr, Stanford, CA 94305, USA
p2046
sS'37.4290316:-122.1666281'
p2047
V551 Serra Mall, Stanford, CA 94305, USA
p2048
sS'37.4307632:-122.1540636'
p2049
V1600 El Camino Real, Palo Alto, CA 94306, USA
p2050
sS'37.4210642:-122.1699668'
p2051
V675 Lomita Dr, Stanford, CA 94305, USA
p2052
sS'37.4273774:-122.171176'
p2053
VLomita Mall, Stanford, CA 94305, USA
p2054
sS'37.41971:-122.1742536'
p2055
VNarnia and EBF Rear Access Rd., Stanford, CA 94305, USA
p2056
sS'37.4209012:-122.1697021'
p2057
V551-599 Lane W, Stanford, CA 94305, USA
p2058
sS'37.4303688:-122.1710242'
p2059
V376 Lomita Dr, Stanford, CA 94305, USA
p2060
sS'37.4290625:-122.1728798'
p2061
VWilliam R. Hewlett Teaching Center, 370 Serra Mall, Stanford, CA 94305, USA
p2062
sS'37.4208534:-122.1699296'
p2063
V675 Lomita Dr, Stanford, CA 94305, USA
p2064
sS'37.4208644:-122.1699142'
p2065
V675 Lomita Dr, Stanford, CA 94305, USA
p2066
sS'37.4209575:-122.1699702'
p2067
V675 Lomita Dr, Stanford, CA 94305, USA
p2068
sS'37.7839326:-122.4269948'
p2069
V1-45 Cleary Ct, San Francisco, CA 94109, USA
p2070
sS'37.4205975:-122.1696035'
p2071
V401-675 Campus Drive, Stanford, CA 94305, USA
p2072
sS'37.4290306:-122.1724525'
p2073
VSequoia Hall, Stanford, CA 94305, USA
p2074
sS'37.4377634:-122.2044599'
p2075
V1470-1490 Franks Ln, West Menlo Park, CA 94025, USA
p2076
sS'37.437293:-122.2032068'
p2077
V1890 Valparaiso Ave, West Menlo Park, CA 94025, USA
p2078
sS'37.4305145:-122.1710302'
p2079
V376 Lomita Dr, Stanford, CA 94305, USA
p2080
sS'37.4273809:-122.1708607'
p2081
V450 Serra Mall, Stanford, CA 94305, USA
p2082
sS'37.4341893:-122.1605461'
p2083
VStanford, CA 94305, USA
p2084
sS'37.4392512:-122.2014148'
p2085
V1777-1799 Valparaiso Ave, Menlo Park, CA 94025, USA
p2086
sS'37.4359945:-122.209831'
p2087
V3115 Alameda de las Pulgas, West Menlo Park, CA 94025, USA
p2088
sS'37.444942:-122.12378'
p2089
VOregon Expy, Palo Alto, CA 94303, USA
p2090
sS'37.4308202:-122.1542356'
p2091
V1600 El Camino Real, Palo Alto, CA 94306, USA
p2092
sS'37.4223077:-122.1700464'
p2093
V500 Lane W, Stanford, CA 94305, USA
p2094
sS'37.427436:-122.1711274'
p2095
VLomita Mall, Stanford, CA 94305, USA
p2096
sS'37.427474:-122.1871426'
p2097
VFremont Rd, Stanford, CA 94305, USA
p2098
sS'37.4289916:-122.1728153'
p2099
VWilliam R. Hewlett Teaching Center, 370 Serra Mall, Stanford, CA 94305, USA
p2100
sS'37.4208279:-122.1699759'
p2101
V675 Lomita Dr, Stanford, CA 94305, USA
p2102
sS'37.421081:-122.1690066'
p2103
V747-799 Campus Drive, Stanford, CA 94305, USA
p2104
sS'37.4206327:-122.1694161'
p2105
V677-699 Campus Drive, Stanford, CA 94305, USA
p2106
sS'37.4298974:-122.1730925'
p2107
VGates Computer Science, 353 Serra Mall, Stanford, CA 94305, USA
p2108
sS'37.4208139:-122.1696898'
p2109
V551-599 Lane W, Stanford, CA 94305, USA
p2110
sS'37.4306368:-122.1712633'
p2111
V376 Lomita Dr, Stanford, CA 94305, USA
p2112
sS'37.420906:-122.169405'
p2113
V551-599 Lane W, Stanford, CA 94305, USA
p2114
sS'37.4383766:-122.159544'
p2115
VBuilding 2, 75, 855 El Camino Real, Palo Alto, CA 94301, USA
p2116
sS'37.4205135:-122.0932811'
p2117
V1113 N Rengstorff Ave, Mountain View, CA 94043, USA
p2118
sS'37.4250306:-122.1705998'
p2119
V520 Lasuen Mall, Stanford, CA 94305, USA
p2120
sS'37.4377294:-122.2044915'
p2121
V1470-1490 Franks Ln, West Menlo Park, CA 94025, USA
p2122
sS'37.4225896:-122.169562'
p2123
V501-545 Mayfield Ave, Stanford, CA 94305, USA
p2124
sS'37.4384376:-122.1590259'
p2125
V855 El Camino Real, Palo Alto, CA 94301, USA
p2126
sS'37.4242021:-122.1708379'
p2127
VTresidder Memorial Union, 459 Lagunita Dr, Stanford, CA 94305, USA
p2128
sS'37.429073:-122.1670275'
p2129
V518 Memorial Way, Stanford, CA 94305, USA
p2130
sS'37.424039:-122.1708308'
p2131
VTresidder Memorial Union, 459 Lagunita Dr, Stanford, CA 94305, USA
p2132
sS'37.7673406:-122.4047414'
p2133
V161-175 Vermont St, San Francisco, CA 94103, USA
p2134
sS'37.4226767:-122.1702756'
p2135
V500 Mayfield Ave, Stanford, CA 94305, USA
p2136
sS'37.4210802:-122.1692285'
p2137
V551-599 Lane W, Stanford, CA 94305, USA
p2138
sS'37.4209787:-122.1699441'
p2139
V675 Lomita Dr, Stanford, CA 94305, USA
p2140
sS'37.4209445:-122.1700266'
p2141
V675 Lomita Dr, Stanford, CA 94305, USA
p2142
sS'37.430607:-122.1712218'
p2143
V376 Lomita Dr, Stanford, CA 94305, USA
p2144
sS'37.4282301:-122.1737784'
p2145
VNorth-South Axis, Stanford, CA 94305, USA
p2146
sS'37.4278062:-122.1754731'
p2147
VS Service Rd, Stanford, CA 94305, USA
p2148
sS'37.4209237:-122.1698197'
p2149
V675 Lomita Dr, Stanford, CA 94305, USA
p2150
sS'37.4333998:-122.1555567'
p2151
VBetty Meltzer Memorial Hwy, Palo Alto, CA 94306, USA
p2152
sS'37.4290402:-122.172417'
p2153
VSequoia Hall, Stanford, CA 94305, USA
p2154
sS'37.4270551:-122.1704483'
p2155
VWomen's Restroom, Stanford, CA 94305, USA
p2156
sS'37.4192732:-122.1689036'
p2157
VCooksey (Synergy), 550 San Juan St, Stanford, CA 94305, USA
p2158
sS'37.4286565:-122.1957422'
p2159
V2110 Santa Cruz Ave, West Menlo Park, CA 94025, USA
p2160
sS'37.4483119:-122.1739749'
p2161
V145 El Camino Real, Menlo Park, CA 94025, USA
p2162
sS'37.4378129:-122.159054'
p2163
V43-57 Embarcadero Rd, Palo Alto, CA 94301, USA
p2164
sS'37.4213992:-122.1685699'
p2165
V747-799 Campus Drive, Stanford, CA 94305, USA
p2166
sS'37.4280556:-122.1490569'
p2167
V450-498 Stanford Ave, Palo Alto, CA 94306, USA
p2168
sS'37.4210802:-122.1696741'
p2169
V548-598 Lane W, Stanford, CA 94305, USA
p2170
sS'37.4319193:-122.182714'
p2171
VParking Structure 5, 360 Oak Rd, Stanford, CA 94305, USA
p2172
sS'37.4209077:-122.1699535'
p2173
V675 Lomita Dr, Stanford, CA 94305, USA
p2174
sS'37.421017:-122.1699933'
p2175
V675 Lomita Dr, Stanford, CA 94305, USA
p2176
sS'37.428219:-122.1695944'
p2177
V450 Serra Mall, Stanford, CA 94305, USA
p2178
sS'37.4255188:-122.1671258'
p2179
V530 Escondido Mall, Stanford, CA 94305, USA
p2180
sS'37.4211034:-122.1699891'
p2181
V675 Lomita Dr, Stanford, CA 94305, USA
p2182
sS'37.4201584:-122.1718403'
p2183
V1047 Campus Drive, Stanford, CA 94305, USA
p2184
sS'37.4842194:-122.2266473'
p2185
V1099 Middlefield Rd, Redwood City, CA 94063, USA
p2186
sS'37.4304739:-122.1546582'
p2187
V691 Pampas Ln, Stanford, CA 94305, USA
p2188
sS'37.4211382:-122.1700296'
p2189
V675 Lomita Dr, Stanford, CA 94305, USA
p2190
sS'37.4209636:-122.1699547'
p2191
V675 Lomita Dr, Stanford, CA 94305, USA
p2192
sS'37.4208746:-122.1699801'
p2193
V675 Lomita Dr, Stanford, CA 94305, USA
p2194
sS'37.4385532:-122.1593305'
p2195
V75, 855 El Camino Real, Palo Alto, CA 94301, USA
p2196
sS'37.4208451:-122.1700036'
p2197
V675 Lomita Dr, Stanford, CA 94305, USA
p2198
sS'37.4378093:-122.2043982'
p2199
V1490 Franks Ln, Menlo Park, CA 94025, USA
p2200
sS'37.4371315:-122.1602502'
p2201
VGalvez St, Palo Alto, CA 94301, USA
p2202
sS'37.4211036:-122.1626375'
p2203
V585 Cowell Ln, Stanford, CA 94305, USA
p2204
sS'37.4209176:-122.1698961'
p2205
V675 Lomita Dr, Stanford, CA 94305, USA
p2206
sS'37.4342888:-122.1607044'
p2207
VStanford, CA 94305, USA
p2208
sS'37.4209049:-122.1700103'
p2209
V675 Lomita Dr, Stanford, CA 94305, USA
p2210
sS'37.4219413:-122.1700967'
p2211
V500 Lane W, Stanford, CA 94305, USA
p2212
sS'37.4308821:-122.1541799'
p2213
V1600 El Camino Real, Palo Alto, CA 94306, USA
p2214
sS'37.4208184:-122.1700035'
p2215
V675 Lomita Dr, Stanford, CA 94305, USA
p2216
sS'37.4208613:-122.1700408'
p2217
V675 Lomita Dr, Stanford, CA 94305, USA
p2218
sS'37.4599728:-122.1359022'
p2219
V1771 E Bayshore Rd, East Palo Alto, CA 94303, USA
p2220
sS'37.423325:-122.1709573'
p2221
V540 Lagunita Dr, Stanford, CA 94305, USA
p2222
sS'37.4464307:-122.159602'
p2223
V560 Waverley St, Palo Alto, CA 94301, USA
p2224
sS'37.4207669:-122.1695459'
p2225
V548 Lane W, Stanford, CA 94305, USA
p2226
sS'37.4256673:-122.1925602'
p2227
V2101-2121 Sand Hill Rd, West Menlo Park, CA 94025, USA
p2228
sS'37.4210067:-122.1693864'
p2229
V551-599 Lane W, Stanford, CA 94305, USA
p2230
sS'37.7881644:-122.4084901'
p2231
V355 Powell St, San Francisco, CA 94102, USA
p2232
sS'37.4209754:-122.1698768'
p2233
V675 Lomita Dr, Stanford, CA 94305, USA
p2234
sS'37.4298722:-122.1730578'
p2235
VN - South Axis, Stanford, CA 94305, USA
p2236
sS'37.420918:-122.1700109'
p2237
V675 Lomita Dr, Stanford, CA 94305, USA
p2238
sS'37.4209146:-122.1700213'
p2239
V675 Lomita Dr, Stanford, CA 94305, USA
p2240
sS'37.4305339:-122.1712155'
p2241
V376 Lomita Dr, Stanford, CA 94305, USA
p2242
sS'37.7876993:-122.4083996'
p2243
V331 Powell St, San Francisco, CA 94102, USA
p2244
sS'37.4307506:-122.1711994'
p2245
V376 Lomita Dr, Stanford, CA 94305, USA
p2246
sS'37.3958738:-122.1017445'
p2247
V2098 CA-82, Mountain View, CA 94040, USA
p2248
sS'37.4303576:-122.1711828'
p2249
V376 Lomita Dr, Stanford, CA 94305, USA
p2250
sS'37.4208382:-122.1700237'
p2251
V675 Lomita Dr, Stanford, CA 94305, USA
p2252
sS'37.4301072:-122.1712383'
p2253
V376 Lomita Dr, Stanford, CA 94305, USA
p2254
sS'37.4305569:-122.1713036'
p2255
V376 Lomita Dr, Stanford, CA 94305, USA
p2256
sS'37.4215995:-122.1703207'
p2257
V675 Lomita Dr, Stanford, CA 94305, USA
p2258
sS'37.4438383:-122.1678859'
p2259
V190-198 Betty Meltzer Memorial Hwy, Palo Alto, CA, USA
p2260
sS'37.4283261:-122.1749591'
p2261
VS Service Rd, Stanford, CA 94305, USA
p2262
sS'37.4208594:-122.1700337'
p2263
V675 Lomita Dr, Stanford, CA 94305, USA
p2264
sS'37.4259284:-122.1758915'
p2265
V373 Santa Teresa St, Stanford, CA 94305, USA
p2266
sS'37.4376892:-122.2046438'
p2267
V1901 Cam De Los Robles, Menlo Park, CA 94025, USA
p2268
sS'37.4207174:-122.1702983'
p2269
V675 Lomita Dr, Stanford, CA 94305, USA
p2270
sS'37.4210443:-122.1700671'
p2271
V675 Lomita Dr, Stanford, CA 94305, USA
p2272
sS'37.4208845:-122.1699051'
p2273
V675 Lomita Dr, Stanford, CA 94305, USA
p2274
sS'37.7881417:-122.4092025'
p2275
V427-455 Post St, San Francisco, CA 94102, USA
p2276
sS'37.4300809:-122.1386762'
p2277
VOregon Expy, Palo Alto, CA 94301, USA
p2278
sS'37.4208674:-122.1700343'
p2279
V675 Lomita Dr, Stanford, CA 94305, USA
p2280
sS'37.4208714:-122.169912'
p2281
V675 Lomita Dr, Stanford, CA 94305, USA
p2282
sS'37.4262146:-122.1927045'
p2283
V2183 Santa Cruz Ave, Menlo Park, CA 94025, USA
p2284
sS'37.7613431:-122.4316209'
p2285
V3944 18th St, San Francisco, CA 94114, USA
p2286
sS'37.4235638:-122.1968406'
p2287
V325 Sharon Park Dr, Menlo Park, CA 94025, USA
p2288
sS'37.420864:-122.1702969'
p2289
V675 Lomita Dr, Stanford, CA 94305, USA
p2290
sS'37.4438694:-122.1598686'
p2291
V673-699 Ramona St, Palo Alto, CA 94301, USA
p2292
sS'37.4211385:-122.169825'
p2293
V675 Lomita Dr, Stanford, CA 94305, USA
p2294
sS'37.4376478:-122.2041465'
p2295
V1440-1460 Franks Ln, West Menlo Park, CA 94025, USA
p2296
sS'37.4427497:-122.1597688'
p2297
V728 Emerson St, Palo Alto, CA 94301, USA
p2298
sS'37.4209158:-122.1699483'
p2299
V675 Lomita Dr, Stanford, CA 94305, USA
p2300
sS'37.4210624:-122.1700756'
p2301
V675 Lomita Dr, Stanford, CA 94305, USA
p2302
sS'37.4283035:-122.1606351'
p2303
V578 Campus Drive, Stanford, CA 94305, USA
p2304
sS'37.427319:-122.1711131'
p2305
VLomita Mall, Stanford, CA 94305, USA
p2306
sS'37.4244783:-122.1705545'
p2307
V459 Lagunita Dr, Stanford, CA 94305, USA
p2308
sS'37.4377731:-122.2043814'
p2309
V1470-1490 Franks Ln, West Menlo Park, CA 94025, USA
p2310
sS'37.4273417:-122.1710911'
p2311
VLomita Mall, Stanford, CA 94305, USA
p2312
sS'37.4436583:-122.1700081'
p2313
VPalo Alto, CA 94304, USA
p2314
sS'37.4207792:-122.170077'
p2315
V675 Lomita Dr, Stanford, CA 94305, USA
p2316
sS'37.4242556:-122.1703581'
p2317
V459 Lagunita Dr, Stanford, CA 94305, USA
p2318
sS'37.4305868:-122.1711842'
p2319
V376 Lomita Dr, Stanford, CA 94305, USA
p2320
sS'37.4351821:-122.1572801'
p2321
VBetty Meltzer Memorial Hwy, Palo Alto, CA 94306, USA
p2322
sS'37.4209583:-122.1696992'
p2323
V551-599 Lane W, Stanford, CA 94305, USA
p2324
sS'37.4235171:-122.1970941'
p2325
V325 Sharon Park Dr, Menlo Park, CA 94025, USA
p2326
sS'37.4209017:-122.1699514'
p2327
V675 Lomita Dr, Stanford, CA 94305, USA
p2328
sS'37.4168186:-122.1300085'
p2329
V3909 Ventura Ave, Palo Alto, CA 94306, USA
p2330
sS'37.427237:-122.1695413'
p2331
V526 Lasuen Mall, Stanford, CA 94305, USA
p2332
sS'37.7842651:-122.4271465'
p2333
V66 Cleary Ct, San Francisco, CA 94109, USA
p2334
sS'37.4211415:-122.1701789'
p2335
V675 Lomita Dr, Stanford, CA 94305, USA
p2336
sS'37.4239672:-122.1706353'
p2337
V520 Lagunita Dr, Stanford, CA 94305, USA
p2338
sS'37.4276586:-122.1762024'
p2339
V640-672 Panama St, Stanford, CA 94305, USA
p2340
sS'37.4242134:-122.1709843'
p2341
V459 Lagunita Dr, Stanford, CA 94305, USA
p2342
sS'37.4245215:-122.1704417'
p2343
V459 Lagunita Dr, Stanford, CA 94305, USA
p2344
sS'37.4207262:-122.093269'
p2345
V1159 N Rengstorff Ave, Mountain View, CA 94043, USA
p2346
sS'37.4377141:-122.2045401'
p2347
V1471-1499 Franks Ln, West Menlo Park, CA 94025, USA
p2348
sS'37.4208778:-122.1697817'
p2349
V551-599 Lane W, Stanford, CA 94305, USA
p2350
sS'37.4264866:-122.1674013'
p2351
V557 Escondido Mall, Stanford, CA 94305, USA
p2352
sS'37.4205152:-122.1696239'
p2353
V401-675 Campus Drive, Stanford, CA 94305, USA
p2354
sS'37.4208475:-122.1698445'
p2355
V675 Lomita Dr, Stanford, CA 94305, USA
p2356
sS'37.4376295:-122.2041587'
p2357
V1440-1460 Franks Ln, West Menlo Park, CA 94025, USA
p2358
sS'37.4167748:-122.1303315'
p2359
V3886 El Camino Real, Palo Alto, CA 94306, USA
p2360
sS'37.4274373:-122.190281'
p2361
V2015-2037 Sand Hill Rd, Stanford, CA 94305, USA
p2362
sS'37.4289828:-122.1679474'
p2363
VLasuen St, Stanford, CA 94305, USA
p2364
sS'37.6165568:-122.3846871'
p2365
VDomestic Garage, San Francisco, CA 94128, USA
p2366
sS'37.420932:-122.1700728'
p2367
V675 Lomita Dr, Stanford, CA 94305, USA
p2368
sS'37.4262578:-122.1669494'
p2369
V571 Lasuen Mall, Stanford, CA 94305, USA
p2370
sS'37.4270489:-122.1674954'
p2371
V882-912 Crothers Way, Stanford, CA 94305, USA
p2372
sS'37.4297762:-122.1519109'
p2373
VSerra St, Palo Alto, CA 94306, USA
p2374
sS'37.4270372:-122.1697575'
p2375
VEscondido Rd, Palo Alto, CA 94305, USA
p2376
sS'37.4209802:-122.1696433'
p2377
V551-599 Lane W, Stanford, CA 94305, USA
p2378
sS'37.4209031:-122.1699967'
p2379
V675 Lomita Dr, Stanford, CA 94305, USA
p2380
sS'37.4378231:-122.2045576'
p2381
V1490-1498 Franks Ln, West Menlo Park, CA 94025, USA
p2382
sS'37.4008814:-122.1129226'
p2383
V4600 CA-82, Los Altos, CA 94022, USA
p2384
sS'37.4208779:-122.1701882'
p2385
V675 Lomita Dr, Stanford, CA 94305, USA
p2386
sS'37.4254199:-122.1709923'
p2387
V536-572 Duena St, Stanford, CA 94305, USA
p2388
sS'37.4255185:-122.1709651'
p2389
V574-598 Duena St, Stanford, CA 94305, USA
p2390
sS'37.4298124:-122.1731205'
p2391
V353 Serra Mall, Stanford, CA 94305, USA
p2392
sS'37.4209895:-122.1698055'
p2393
V548-598 Lane W, Stanford, CA 94305, USA
p2394
sS'37.4340721:-122.1979473'
p2395
V1975 Santa Cruz Ave, Menlo Park, CA 94025, USA
p2396
sS'37.4212582:-122.1692576'
p2397
V551-599 Lane W, Stanford, CA 94305, USA
p2398
sS'37.4238978:-122.1704018'
p2399
V575-615 Lagunita Dr, Stanford, CA 94305, USA
p2400
sS'37.4214758:-122.1702173'
p2401
V675 Lomita Dr, Stanford, CA 94305, USA
p2402
sS'37.4242644:-122.1598147'
p2403
V320 Escondido Rd, Stanford, CA 94305, USA
p2404
sS'37.4208546:-122.1702211'
p2405
V675 Lomita Dr, Stanford, CA 94305, USA
p2406
sS'37.4207994:-122.1704617'
p2407
V675 Lomita Dr, Stanford, CA 94305, USA
p2408
sS'37.5474311:-122.3111865'
p2409
V2000-2098 Wyoming Way, San Mateo, CA 94403, USA
p2410
sS'37.4296148:-122.1725988'
p2411
V371 Serra Mall, Stanford, CA 94305, USA
p2412
sS'37.4209215:-122.1699831'
p2413
V675 Lomita Dr, Stanford, CA 94305, USA
p2414
sS'37.4209162:-122.1702506'
p2415
V675 Lomita Dr, Stanford, CA 94305, USA
p2416
sS'37.7886908:-122.4071501'
p2417
V300 Post St, San Francisco, CA 94108, USA
p2418
sS'37.4304488:-122.1627297'
p2419
V625 Campus Drive, Stanford, CA 94305, USA
p2420
sS'37.7842104:-122.4271143'
p2421
V66 Cleary Ct, San Francisco, CA 94109, USA
p2422
sS'37.4239272:-122.1705522'
p2423
V575-615 Lagunita Dr, Stanford, CA 94305, USA
p2424
sS'37.4230825:-122.1698275'
p2425
V544 Lasuen Mall, Stanford, CA 94305, USA
p2426
sS'37.4217618:-122.1697599'
p2427
V500 Lane W, Stanford, CA 94305, USA
p2428
sS'37.4193321:-122.1689327'
p2429
VCooksey (Synergy), 550 San Juan St, Stanford, CA 94305, USA
p2430
sS'37.4303266:-122.1709841'
p2431
V376 Lomita Dr, Stanford, CA 94305, USA
p2432
sS'37.4287543:-122.173588'
p2433
VNorth-South Axis, Stanford, CA 94305, USA
p2434
sS'37.4654959:-122.2064352'
p2435
V3401 CA-82, Atherton, CA 94027, USA
p2436
sS'37.4533699:-122.1822561'
p2437
V1010-1080 El Camino Real, Menlo Park, CA 94025, USA
p2438
sS'37.4208823:-122.1698596'
p2439
V675 Lomita Dr, Stanford, CA 94305, USA
p2440
sS'37.430593:-122.1711807'
p2441
V376 Lomita Dr, Stanford, CA 94305, USA
p2442
sS'37.420844:-122.1700168'
p2443
V675 Lomita Dr, Stanford, CA 94305, USA
p2444
sS'37.4251962:-122.1708698'
p2445
V536-572 Duena St, Stanford, CA 94305, USA
p2446
sS'37.4287014:-122.1694986'
p2447
V450 Serra Mall, Stanford, CA 94305, USA
p2448
sS'37.4306329:-122.17126'
p2449
V376 Lomita Dr, Stanford, CA 94305, USA
p2450
s.