(dp0
S'37.4240169:-122.167505'
p1
VCrown Quadrangle, 559 Nathan Abbott Way, Stanford, CA 94305, USA
p2
sS'37.4445351:-122.1631373'
p3
V169 University Ave, Palo Alto, CA 94301, USA
p4
sS'37.4209088:-122.1700319'
p5
V675 Lomita Dr, Stanford, CA 94305, USA
p6
sS'37.438888:-122.1587936'
p7
V855 El Camino Real, Palo Alto, CA 94301, USA
p8
sS'37.4242496:-122.170985'
p9
V459 Lagunita Dr, Stanford, CA 94305, USA
p10
sS'37.4236525:-122.1705028'
p11
V575-615 Lagunita Dr, Stanford, CA 94305, USA
p12
sS'37.4277477:-122.1712246'
p13
VLomita Mall, Stanford, CA 94305, USA
p14
sS'37.4200348:-122.174724'
p15
VNarnia, 1135 Campus Drive, Stanford, CA 94305, USA
p16
sS'37.4208383:-122.1697816'
p17
V551-599 Lane W, Stanford, CA 94305, USA
p18
sS'37.4259588:-122.1672895'
p19
V560 Escondido Mall, Stanford, CA 94305, USA
p20
sS'37.4209575:-122.1699702'
p21
V675 Lomita Dr, Stanford, CA 94305, USA
p22
sS'37.4208781:-122.169986'
p23
V675 Lomita Dr, Stanford, CA 94305, USA
p24
sS'37.4286202:-122.1716669'
p25
V452 Lomita Mall, Stanford, CA 94305, USA
p26
sS'37.4371638:-122.2032727'
p27
V1890 Valparaiso Ave, West Menlo Park, CA 94025, USA
p28
sS'37.4209896:-122.1700626'
p29
V675 Lomita Dr, Stanford, CA 94305, USA
p30
sS'37.4293543:-122.196862'
p31
V3868-3876 Alameda de las Pulgas, West Menlo Park, CA 94025, USA
p32
sS'37.4279316:-122.1898927'
p33
V2001-2013 Sand Hill Rd, Stanford, CA 94305, USA
p34
sS'37.4253551:-122.1676475'
p35
V488 Escondido Mall, Stanford, CA 94305, USA
p36
sS'37.4291756:-122.1691951'
p37
V20 Palm Dr, Stanford, CA 94305, USA
p38
sS'37.4468884:-122.1597227'
p39
V527 Waverley St, Palo Alto, CA 94301, USA
p40
sS'37.4256875:-122.1773775'
p41
V324 Santa Teresa St, Stanford, CA 94305, USA
p42
sS'37.4258245:-122.1471655'
p43
V2244-2280 Betty Meltzer Memorial Hwy, Palo Alto, CA 94306, USA
p44
sS'37.7823807:-122.4326202'
p45
VEllis St, San Francisco, CA 94115, USA
p46
sS'37.4209023:-122.1702184'
p47
V675 Lomita Dr, Stanford, CA 94305, USA
p48
sS'37.4219832:-122.1680329'
p49
V565 Mayfield Ave, Stanford, CA 94305, USA
p50
sS'37.4208073:-122.1703676'
p51
V675 Lomita Dr, Stanford, CA 94305, USA
p52
sS'37.423889:-122.1606293'
p53
V870 Campus Drive, Stanford, CA 94305, USA
p54
sS'37.4236275:-122.1715051'
p55
V533-571 Lagunita Dr, Stanford, CA 94305, USA
p56
sS'37.4266028:-122.1708092'
p57
V590 Escondido Mall, Stanford, CA 94305, USA
p58
sS'37.4209434:-122.169925'
p59
V675 Lomita Dr, Stanford, CA 94305, USA
p60
sS'37.4208084:-122.170307'
p61
V675 Lomita Dr, Stanford, CA 94305, USA
p62
sS'37.7739755:-122.4235546'
p63
V174 Page St, San Francisco, CA 94102, USA
p64
sS'37.4302038:-122.1711538'
p65
V376 Lomita Dr, Stanford, CA 94305, USA
p66
sS'37.4220162:-122.1671148'
p67
VCampus Drive, Stanford, CA 94305, USA
p68
sS'37.4242255:-122.1709518'
p69
VTresidder Memorial Union, 459 Lagunita Dr, Stanford, CA 94305, USA
p70
sS'37.4247085:-122.1698928'
p71
V520 Lasuen Mall, Stanford, CA 94305, USA
p72
sS'37.4208388:-122.1702388'
p73
V675 Lomita Dr, Stanford, CA 94305, USA
p74
sS'37.4285005:-122.1752675'
p75
V316 Via Pueblo, Stanford, CA 94305, USA
p76
sS'37.4289833:-122.1729379'
p77
VWilliam R. Hewlett Teaching Center, 370 Serra Mall, Stanford, CA 94305, USA
p78
sS'37.426351:-122.1671779'
p79
V557 Escondido Mall, Stanford, CA 94305, USA
p80
sS'37.4257014:-122.1729623'
p81
VLomita Mall, Stanford, CA 94305, USA
p82
sS'37.4209235:-122.1701445'
p83
V675 Lomita Dr, Stanford, CA 94305, USA
p84
sS'37.4208689:-122.1699453'
p85
V675 Lomita Dr, Stanford, CA 94305, USA
p86
sS'37.4264827:-122.1762913'
p87
VVia Ortega Dr, Stanford, CA 94305, USA
p88
sS'37.4383604:-122.1594839'
p89
VBuilding 2, 75, 855 El Camino Real, Palo Alto, CA 94301, USA
p90
sS'37.4209658:-122.1699112'
p91
V675 Lomita Dr, Stanford, CA 94305, USA
p92
sS'37.4302599:-122.1711813'
p93
V376 Lomita Dr, Stanford, CA 94305, USA
p94
sS'37.4278954:-122.1759697'
p95
VS Service Rd, Stanford, CA 94305, USA
p96
sS'37.4210015:-122.1693707'
p97
V551-599 Lane W, Stanford, CA 94305, USA
p98
sS'37.5778963:-122.3484168'
p99
V303 Primrose Rd, Burlingame, CA 94010, USA
p100
sS'37.4229367:-122.1668694'
p101
V563 Salvatierra St, Stanford, CA 94305, USA
p102
sS'37.4382564:-122.1593848'
p103
VBuilding 2, 75, 855 El Camino Real, Palo Alto, CA 94301, USA
p104
sS'37.4208262:-122.1699381'
p105
V675 Lomita Dr, Stanford, CA 94305, USA
p106
sS'37.4377224:-122.2044134'
p107
V1470-1490 Franks Ln, West Menlo Park, CA 94025, USA
p108
sS'37.4208457:-122.1698766'
p109
V675 Lomita Dr, Stanford, CA 94305, USA
p110
sS'37.4211286:-122.1698657'
p111
V675 Lomita Dr, Stanford, CA 94305, USA
p112
sS'37.4378168:-122.2043651'
p113
V1470 Franks Ln, Menlo Park, CA 94025, USA
p114
sS'37.4385097:-122.1601158'
p115
V151, 855 El Camino Real, Palo Alto, CA 94301, USA
p116
sS'37.4446423:-122.1708332'
p117
V158-166 Stanford Dr, Palo Alto, CA 94304, USA
p118
sS'37.4267294:-122.1733993'
p119
VDurand Building, 496 Lomita Mall, Stanford, CA 94305, USA
p120
sS'37.4208587:-122.1699514'
p121
V675 Lomita Dr, Stanford, CA 94305, USA
p122
sS'37.4378368:-122.1779887'
p123
V732-816 Sand Hill Rd, Palo Alto, CA 94304, USA
p124
sS'37.437769:-122.2043634'
p125
V1470-1490 Franks Ln, West Menlo Park, CA 94025, USA
p126
sS'37.423944:-122.1704988'
p127
V575-615 Lagunita Dr, Stanford, CA 94305, USA
p128
sS'37.4203248:-122.173512'
p129
V636 Lomita Ct, Stanford, CA 94305, USA
p130
sS'37.4240101:-122.1704799'
p131
V459 Lagunita Dr, Stanford, CA 94305, USA
p132
sS'37.4229192:-122.1668297'
p133
V563 Salvatierra St, Stanford, CA 94305, USA
p134
sS'37.4281297:-122.1732596'
p135
VNorth-South Axis, Stanford, CA 94305, USA
p136
sS'37.7886556:-122.4071044'
p137
V300 Post St, San Francisco, CA 94108, USA
p138
sS'37.4418831:-122.1611539'
p139
V100 Forest Ave, Palo Alto, CA 94301, USA
p140
sS'37.4209679:-122.1700988'
p141
V675 Lomita Dr, Stanford, CA 94305, USA
p142
sS'37.4451188:-122.1623627'
p143
V222-230 University Ave, Palo Alto, CA 94301, USA
p144
sS'37.4208147:-122.1698067'
p145
V551-599 Lane W, Stanford, CA 94305, USA
p146
sS'37.42074:-122.1699055'
p147
V675 Lomita Dr, Stanford, CA 94305, USA
p148
sS'37.423893:-122.1969556'
p149
V325 Sharon Park Dr, Menlo Park, CA 94025, USA
p150
sS'37.4209316:-122.1697244'
p151
V551-599 Lane W, Stanford, CA 94305, USA
p152
sS'37.4240416:-122.1967272'
p153
V325m Sharon Park Dr, Menlo Park, CA 94025, USA
p154
sS'37.4233909:-122.1429068'
p155
V2650 El Camino Real, Palo Alto, CA 94306, USA
p156
sS'37.4211456:-122.1702831'
p157
V675 Lomita Dr, Stanford, CA 94305, USA
p158
sS'37.4265827:-122.1773237'
p159
VArrillaga Outdoor Education and Recreation Center, 285 Santa Teresa St, Stanford, CA 94305, USA
p160
sS'37.4239182:-122.1707302'
p161
VTresidder Memorial Union, 459 Lagunita Dr, Stanford, CA 94305, USA
p162
sS'37.4209195:-122.1700223'
p163
V675 Lomita Dr, Stanford, CA 94305, USA
p164
sS'37.7878775:-122.4079305'
p165
VThe Dewey Monument, San Francisco, CA 94108, USA
p166
sS'37.4209025:-122.1700027'
p167
V675 Lomita Dr, Stanford, CA 94305, USA
p168
sS'37.422232:-122.1667606'
p169
VCampus Drive, Stanford, CA 94305, USA
p170
sS'37.4378467:-122.2043246'
p171
V1470 Franks Ln, Menlo Park, CA 94025, USA
p172
sS'37.4269198:-122.1704571'
p173
VWomen's Restroom, Stanford, CA 94305, USA
p174
sS'37.4239945:-122.1705202'
p175
V459 Lagunita Dr, Stanford, CA 94305, USA
p176
sS'37.4207816:-122.1694781'
p177
V548-598 Lane W, Stanford, CA 94305, USA
p178
sS'37.4255882:-122.1734448'
p179
VThornton Center (Terman Annex), 379 Santa Teresa St, Stanford, CA 94305, USA
p180
sS'37.4433885:-122.1723385'
p181
VPalo Alto, CA 94304, USA
p182
sS'37.4245173:-122.1700206'
p183
V300-320 Lasuen Mall, Stanford, CA 94305, USA
p184
sS'37.4269779:-122.1672986'
p185
V852-880 Crothers Way, Stanford, CA 94305, USA
p186
sS'37.4223406:-122.1658883'
p187
V576, 576 Alvarado Row, Stanford, CA 94305, USA
p188
sS'37.4214775:-122.1693938'
p189
V551-599 Lane W, Stanford, CA 94305, USA
p190
sS'37.429734:-122.1677201'
p191
VLasuen St, Stanford, CA 94305, USA
p192
sS'37.4265218:-122.1687878'
p193
V459 Lasuen Mall, Stanford, CA 94305, USA
p194
sS'37.4439906:-122.1627972'
p195
V156 University Ave, Palo Alto, CA 94301, USA
p196
sS'37.4208545:-122.1700282'
p197
V675 Lomita Dr, Stanford, CA 94305, USA
p198
sS'37.4209154:-122.1699478'
p199
V675 Lomita Dr, Stanford, CA 94305, USA
p200
sS'37.4209719:-122.1700564'
p201
V675 Lomita Dr, Stanford, CA 94305, USA
p202
sS'37.4478458:-122.1596551'
p203
V464-468 University Ave, Palo Alto, CA 94301, USA
p204
sS'37.4432693:-122.1696615'
p205
VPalo Alto, CA 94304, USA
p206
sS'37.4209441:-122.1699504'
p207
V675 Lomita Dr, Stanford, CA 94305, USA
p208
sS'37.4207865:-122.1702221'
p209
V675 Lomita Dr, Stanford, CA 94305, USA
p210
sS'37.4292018:-122.1706288'
p211
V380 Serra Mall, Stanford, CA 94305, USA
p212
sS'37.4208309:-122.1700974'
p213
V675 Lomita Dr, Stanford, CA 94305, USA
p214
sS'37.4306191:-122.171236'
p215
V376 Lomita Dr, Stanford, CA 94305, USA
p216
sS'37.4205353:-122.1711187'
p217
V670 Lomita Dr, Palo Alto, CA 94305, USA
p218
sS'37.4198518:-122.1738271'
p219
V1115 Campus Drive, Stanford, CA 94305, USA
p220
sS'37.4471825:-122.1605359'
p221
V454-498 Waverley St, Palo Alto, CA 94301, USA
p222
sS'37.4300841:-122.1722646'
p223
V371 Serra Mall, Stanford, CA 94305, USA
p224
sS'37.4208884:-122.1698374'
p225
V675 Lomita Dr, Stanford, CA 94305, USA
p226
sS'37.4380525:-122.1583199'
p227
V15-43 Embarcadero Rd, Palo Alto, CA 94301, USA
p228
sS'37.4364097:-122.2013737'
p229
V1304 Orange Ave, Menlo Park, CA 94025, USA
p230
sS'37.4208685:-122.1699273'
p231
V675 Lomita Dr, Stanford, CA 94305, USA
p232
sS'37.4202857:-122.1700669'
p233
V1035 Campus Drive, Stanford, CA 94305, USA
p234
sS'37.4291066:-122.1729261'
p235
VWilliam R. Hewlett Teaching Center, 370 Serra Mall, Stanford, CA 94305, USA
p236
sS'37.4255249:-122.1447864'
p237
V466-472 Jacaranda Ln, Palo Alto, CA 94306, USA
p238
sS'37.439887:-122.1624919'
p239
V795 Medical Foundation Dr, Palo Alto, CA 94301, USA
p240
sS'37.4534464:-122.1830538'
p241
V601-603 Santa Cruz Ave, Menlo Park, CA 94025, USA
p242
sS'37.421929:-122.1868311'
p243
V114-158 Junipero Serra Blvd, Stanford, CA 94305, USA
p244
sS'37.4211657:-122.1701651'
p245
V675 Lomita Dr, Stanford, CA 94305, USA
p246
sS'37.4209141:-122.1699015'
p247
V675 Lomita Dr, Stanford, CA 94305, USA
p248
sS'37.4211102:-122.169979'
p249
V675 Lomita Dr, Stanford, CA 94305, USA
p250
sS'37.4209966:-122.1701091'
p251
V675 Lomita Dr, Stanford, CA 94305, USA
p252
sS'37.4183004:-122.1660246'
p253
V717-721 Dolores St, Stanford, CA 94305, USA
p254
sS'37.4533664:-122.1834008'
p255
V602 Santa Cruz Ave, Menlo Park, CA 94025, USA
p256
sS'37.4238515:-122.1705979'
p257
V575-615 Lagunita Dr, Stanford, CA 94305, USA
p258
sS'37.7453167:-122.4049554'
p259
VBayshore Fwy, San Francisco, CA 94110, USA
p260
sS'37.4209284:-122.1700347'
p261
V675 Lomita Dr, Stanford, CA 94305, USA
p262
sS'37.4235969:-122.1698712'
p263
VBraun Music Center, 541 Lasuen Mall, Stanford, CA 94305, USA
p264
sS'37.4304356:-122.2380125'
p265
VJunipero Serra Fwy, Atherton, CA 94027, USA
p266
sS'37.4431225:-122.169141'
p267
V20 Stanford Shopping Center, Palo Alto, CA 94304, USA
p268
sS'37.4241045:-122.1708553'
p269
VTresidder Memorial Union, 459 Lagunita Dr, Stanford, CA 94305, USA
p270
sS'37.4443564:-122.1701392'
p271
V82 Stanford Shopping Center, Palo Alto, CA 94304, USA
p272
sS'37.4376036:-122.2041821'
p273
V1440-1460 Franks Ln, West Menlo Park, CA 94025, USA
p274
sS'37.4208364:-122.1697871'
p275
V551-599 Lane W, Stanford, CA 94305, USA
p276
sS'37.4426372:-122.1649616'
p277
V49-73 University Ave, Palo Alto, CA 94301, USA
p278
sS'37.4283863:-122.1747026'
p279
V475 Via Ortega, Stanford, CA 94305, USA
p280
sS'37.4178539:-122.1320278'
p281
V3775 CA-82, Palo Alto, CA 94306, USA
p282
sS'37.4210792:-122.1695191'
p283
V551-599 Lane W, Stanford, CA 94305, USA
p284
sS'37.4204842:-122.1713754'
p285
V680 Lomita Dr, Stanford, CA 94305, USA
p286
sS'37.4210033:-122.1700214'
p287
V675 Lomita Dr, Stanford, CA 94305, USA
p288
sS'37.4306578:-122.1710557'
p289
V376 Lomita Dr, Stanford, CA 94305, USA
p290
sS'37.420762:-122.1699933'
p291
V675 Lomita Dr, Stanford, CA 94305, USA
p292
sS'37.4248185:-122.1707026'
p293
V524 Duena St, Stanford, CA 94305, USA
p294
sS'37.4209115:-122.1691562'
p295
V551-599 Lane W, Stanford, CA 94305, USA
p296
sS'37.4306319:-122.171232'
p297
V376 Lomita Dr, Stanford, CA 94305, USA
p298
sS'37.4215392:-122.1693898'
p299
V501-549 Lane W, Stanford, CA 94305, USA
p300
sS'37.4237938:-122.1712758'
p301
V533-571 Lagunita Dr, Stanford, CA 94305, USA
p302
sS'37.616777:-122.3844545'
p303
VDomestic Garage, San Francisco, CA 94128, USA
p304
sS'37.420938:-122.1698992'
p305
V675 Lomita Dr, Stanford, CA 94305, USA
p306
sS'37.4210193:-122.170029'
p307
V675 Lomita Dr, Stanford, CA 94305, USA
p308
sS'37.4210145:-122.1698426'
p309
V675 Lomita Dr, Stanford, CA 94305, USA
p310
sS'37.4297141:-122.1728468'
p311
V371 Serra Mall, Stanford, CA 94305, USA
p312
sS'37.4377041:-122.2044117'
p313
V1470-1490 Franks Ln, West Menlo Park, CA 94025, USA
p314
sS'37.4208593:-122.1699426'
p315
V675 Lomita Dr, Stanford, CA 94305, USA
p316
sS'37.4282337:-122.1715284'
p317
VLomita Mall, Stanford, CA 94305, USA
p318
sS'37.4284073:-122.1606391'
p319
V578 Campus Drive, Stanford, CA 94305, USA
p320
sS'37.4208453:-122.1699882'
p321
V675 Lomita Dr, Stanford, CA 94305, USA
p322
sS'37.4228445:-122.1418357'
p323
V2905 El Camino Real, Palo Alto, CA 94306, USA
p324
sS'37.4208972:-122.1699972'
p325
V675 Lomita Dr, Stanford, CA 94305, USA
p326
sS'37.4249033:-122.1687455'
p327
V519 Lasuen Mall, Stanford, CA 94305, USA
p328
sS'37.4208915:-122.1699503'
p329
V675 Lomita Dr, Stanford, CA 94305, USA
p330
sS'37.4208814:-122.1699856'
p331
V675 Lomita Dr, Stanford, CA 94305, USA
p332
sS'37.4208414:-122.1699098'
p333
V675 Lomita Dr, Stanford, CA 94305, USA
p334
sS'37.4443484:-122.1711372'
p335
VPalo Alto, CA 94304, USA
p336
sS'37.4277015:-122.1697681'
p337
V450 Serra Mall, Stanford, CA 94305, USA
p338
sS'37.4208665:-122.1698432'
p339
V675 Lomita Dr, Stanford, CA 94305, USA
p340
sS'37.421999:-122.1680353'
p341
V565 Mayfield Ave, Stanford, CA 94305, USA
p342
sS'37.43816:-122.1592713'
p343
VBuilding 2, 75, 855 El Camino Real, Palo Alto, CA 94301, USA
p344
sS'37.4212016:-122.1701146'
p345
V675 Lomita Dr, Stanford, CA 94305, USA
p346
sS'37.426116:-122.1456231'
p347
V415-469 New Mayfield Ln, Palo Alto, CA 94306, USA
p348
sS'37.4432431:-122.1693642'
p349
V14 Stanford Shopping Center, Palo Alto, CA 94304, USA
p350
sS'37.4297559:-122.1700736'
p351
V20 Palm Dr, Stanford, CA 94305, USA
p352
sS'37.5783148:-122.3488297'
p353
V343 Primrose Rd, Burlingame, CA 94010, USA
p354
sS'37.4425144:-122.1705054'
p355
V666-684 Orchard Lane, Palo Alto, CA 94304, USA
p356
sS'37.4240784:-122.1707337'
p357
VTresidder Memorial Union, 459 Lagunita Dr, Stanford, CA 94305, USA
p358
sS'37.4194111:-122.1715442'
p359
V401-675 Campus Drive, Stanford, CA 94305, USA
p360
sS'37.4312008:-122.1544941'
p361
V1600 El Camino Real, Palo Alto, CA 94306, USA
p362
sS'37.4238906:-122.167519'
p363
VCrown Quadrangle, 559 Nathan Abbott Way, Stanford, CA 94305, USA
p364
sS'37.4210388:-122.1696688'
p365
V551-599 Lane W, Stanford, CA 94305, USA
p366
sS'37.4220441:-122.1700341'
p367
V500 Lane W, Stanford, CA 94305, USA
p368
sS'37.4285298:-122.1956402'
p369
V2110 Santa Cruz Ave, West Menlo Park, CA 94025, USA
p370
sS'37.421016:-122.1696743'
p371
V551-599 Lane W, Stanford, CA 94305, USA
p372
sS'37.420929:-122.170012'
p373
V675 Lomita Dr, Stanford, CA 94305, USA
p374
sS'37.4244555:-122.1707416'
p375
VTresidder Memorial Union, 459 Lagunita Dr, Stanford, CA 94305, USA
p376
sS'37.4281941:-122.1734303'
p377
VNorth-South Axis, Stanford, CA 94305, USA
p378
sS'37.5475091:-122.3110994'
p379
V2001-2099 Wyoming Way, San Mateo, CA 94403, USA
p380
sS'37.4299385:-122.1730219'
p381
VN - South Axis, Stanford, CA 94305, USA
p382
sS'37.7841874:-122.427167'
p383
V66 Cleary Ct, San Francisco, CA 94109, USA
p384
sS'37.4129585:-122.125114'
p385
V4131 El Camino Real, Palo Alto, CA 94306, USA
p386
sS'37.4211083:-122.1694171'
p387
V551-599 Lane W, Stanford, CA 94305, USA
p388
sS'37.4209535:-122.1699134'
p389
V675 Lomita Dr, Stanford, CA 94305, USA
p390
sS'37.7832022:-122.4320107'
p391
V75-99 Byington St, San Francisco, CA 94115, USA
p392
sS'37.4291121:-122.166495'
p393
V551 Serra Mall, Stanford, CA 94305, USA
p394
sS'37.4459977:-122.1613728'
p395
V300 University Ave, Palo Alto, CA 94301, USA
p396
sS'37.4215323:-122.1690839'
p397
V551-599 Lane W, Stanford, CA 94305, USA
p398
sS'37.4209115:-122.1699213'
p399
V675 Lomita Dr, Stanford, CA 94305, USA
p400
sS'37.4274324:-122.1683174'
p401
V981-999 Crothers Way, Stanford, CA 94305, USA
p402
sS'37.4209011:-122.1699602'
p403
V675 Lomita Dr, Stanford, CA 94305, USA
p404
sS'37.4208564:-122.169962'
p405
V675 Lomita Dr, Stanford, CA 94305, USA
p406
sS'37.4208706:-122.1698834'
p407
V675 Lomita Dr, Stanford, CA 94305, USA
p408
sS'37.4240655:-122.1704227'
p409
V459 Lagunita Dr, Stanford, CA 94305, USA
p410
sS'37.420671:-122.1695633'
p411
V548 Lane W, Stanford, CA 94305, USA
p412
sS'37.4423931:-122.1706767'
p413
VPalo Alto, CA 94304, USA
p414
sS'37.4252343:-122.1714126'
p415
V524 Duena St, Stanford, CA 94305, USA
p416
sS'37.4210086:-122.1700782'
p417
V675 Lomita Dr, Stanford, CA 94305, USA
p418
sS'37.4208609:-122.1699447'
p419
V675 Lomita Dr, Stanford, CA 94305, USA
p420
sS'37.4378178:-122.2043232'
p421
V1470 Franks Ln, Menlo Park, CA 94025, USA
p422
sS'37.4211891:-122.1697886'
p423
V675 Lomita Dr, Stanford, CA 94305, USA
p424
sS'37.4209813:-122.1700411'
p425
V675 Lomita Dr, Stanford, CA 94305, USA
p426
sS'37.4208851:-122.1698976'
p427
V675 Lomita Dr, Stanford, CA 94305, USA
p428
sS'37.4377442:-122.2043511'
p429
V1470-1490 Franks Ln, West Menlo Park, CA 94025, USA
p430
sS'37.4371863:-122.2033215'
p431
V1890 Valparaiso Ave, West Menlo Park, CA 94025, USA
p432
sS'37.4377598:-122.2044073'
p433
V1470-1490 Franks Ln, West Menlo Park, CA 94025, USA
p434
sS'37.4209739:-122.1700215'
p435
V675 Lomita Dr, Stanford, CA 94305, USA
p436
sS'37.7612838:-122.4314271'
p437
V3930 18th St, San Francisco, CA 94114, USA
p438
sS'37.4219952:-122.16731'
p439
VCampus Drive, Stanford, CA 94305, USA
p440
sS'37.4232944:-122.1701897'
p441
V635 Lagunita Dr, Stanford, CA 94305, USA
p442
sS'37.4209731:-122.1700656'
p443
V675 Lomita Dr, Stanford, CA 94305, USA
p444
sS'37.4266051:-122.1771855'
p445
VArrillaga Outdoor Education and Recreation Center, 285 Santa Teresa St, Stanford, CA 94305, USA
p446
sS'37.420863:-122.1699211'
p447
V675 Lomita Dr, Stanford, CA 94305, USA
p448
sS'37.4209215:-122.1698922'
p449
V675 Lomita Dr, Stanford, CA 94305, USA
p450
sS'37.430669:-122.171314'
p451
VOld Chemistry Building, Stanford, CA 94305, USA
p452
sS'37.4212161:-122.1699943'
p453
V675 Lomita Dr, Stanford, CA 94305, USA
p454
sS'37.4244427:-122.1914247'
p455
V100 Junipero Serra Blvd, Stanford, CA 94305, USA
p456
sS'37.4238954:-122.1959427'
p457
V125 Sharon Park Dr, Menlo Park, CA 94025, USA
p458
sS'37.7372604:-122.4254234'
p459
V1021-1099 San Jose Avenue, San Francisco, CA 94110, USA
p460
sS'37.4471368:-122.1604244'
p461
V405 University Ave, Palo Alto, CA 94301, USA
p462
sS'37.4255361:-122.172895'
p463
VLomita Mall, Stanford, CA 94305, USA
p464
sS'37.4210941:-122.1700258'
p465
V675 Lomita Dr, Stanford, CA 94305, USA
p466
sS'37.4263738:-122.17636'
p467
VVia Ortega Dr, Stanford, CA 94305, USA
p468
sS'37.4166225:-122.1469955'
p469
V1005-1125 Page Mill Rd, Palo Alto, CA 94304, USA
p470
sS'37.4209447:-122.170003'
p471
V675 Lomita Dr, Stanford, CA 94305, USA
p472
sS'37.4209462:-122.1699715'
p473
V675 Lomita Dr, Stanford, CA 94305, USA
p474
sS'37.4241078:-122.1672791'
p475
VCrown Quadrangle, 559 Nathan Abbott Way, Stanford, CA 94305, USA
p476
sS'37.4205278:-122.1690193'
p477
VPhi Sig, 1018 Campus Drive, Stanford, CA 94305, USA
p478
sS'37.4378695:-122.2046496'
p479
V1490-1498 Franks Ln, West Menlo Park, CA 94025, USA
p480
sS'37.4209375:-122.1699593'
p481
V675 Lomita Dr, Stanford, CA 94305, USA
p482
sS'37.4246:-122.1705618'
p483
V459 Lagunita Dr, Stanford, CA 94305, USA
p484
sS'37.4221142:-122.1671803'
p485
VCampus Drive, Stanford, CA 94305, USA
p486
sS'37.4244603:-122.1707228'
p487
VTresidder Memorial Union, 459 Lagunita Dr, Stanford, CA 94305, USA
p488
sS'37.7881602:-122.4086684'
p489
V421 Post St, San Francisco, CA 94102, USA
p490
sS'37.4285369:-122.1733538'
p491
VNorth-South Axis, Stanford, CA 94305, USA
p492
sS'37.4210404:-122.1698599'
p493
V675 Lomita Dr, Stanford, CA 94305, USA
p494
sS'37.421519:-122.1689686'
p495
VBOB (Robert Moore S), 566 Mayfield Ave, Stanford, CA 94305, USA
p496
sS'37.4238359:-122.1968485'
p497
V325 Sharon Park Dr, Menlo Park, CA 94025, USA
p498
sS'37.423917:-122.1704992'
p499
V575-615 Lagunita Dr, Stanford, CA 94305, USA
p500
sS'37.4209139:-122.1698985'
p501
V675 Lomita Dr, Stanford, CA 94305, USA
p502
sS'37.424324:-122.1710597'
p503
V459 Lagunita Dr, Stanford, CA 94305, USA
p504
sS'37.4378718:-122.2044058'
p505
V1490 Franks Ln, Menlo Park, CA 94025, USA
p506
sS'37.4210792:-122.16905'
p507
V701-745 Campus Drive, Stanford, CA 94305, USA
p508
sS'37.4218748:-122.1681534'
p509
VHFD, Stanford, CA 94305, USA
p510
sS'37.4531235:-122.1836381'
p511
V620 Santa Cruz Ave, Menlo Park, CA 94025, USA
p512
sS'37.4244987:-122.1709559'
p513
VTresidder Memorial Union, 459 Lagunita Dr, Stanford, CA 94305, USA
p514
sS'37.4211274:-122.1698874'
p515
V675 Lomita Dr, Stanford, CA 94305, USA
p516
sS'37.425077:-122.1723403'
p517
V429-447 Santa Teresa St, Stanford, CA 94305, USA
p518
sS'37.4246637:-122.1704824'
p519
V524 Lasuen Mall, Stanford, CA 94305, USA
p520
sS'37.7834383:-122.4103379'
p521
V66 Turk St, San Francisco, CA 94102, USA
p522
sS'37.4212005:-122.1848931'
p523
V198 Junipero Serra Blvd, Stanford, CA 94305, USA
p524
sS'37.4432699:-122.1691049'
p525
V20 Stanford Shopping Center, Palo Alto, CA 94304, USA
p526
sS'37.4270854:-122.1700413'
p527
VEscondido Rd, Palo Alto, CA 94305, USA
p528
sS'37.4209179:-122.1700318'
p529
V675 Lomita Dr, Stanford, CA 94305, USA
p530
sS'37.44708:-122.1603998'
p531
V502 Waverley St, Palo Alto, CA 94301, USA
p532
sS'37.4254924:-122.1711407'
p533
VBuilding 570, 438 Panama St, Stanford, CA 94305, USA
p534
sS'37.4213026:-122.1841469'
p535
V198 Junipero Serra Blvd, Stanford, CA 94305, USA
p536
sS'37.4378116:-122.2043978'
p537
V1490 Franks Ln, Menlo Park, CA 94025, USA
p538
sS'37.4210326:-122.1698631'
p539
V675 Lomita Dr, Stanford, CA 94305, USA
p540
sS'37.4232537:-122.1701268'
p541
V635-699 Lagunita Dr, Stanford, CA 94305, USA
p542
sS'37.4182931:-122.1659512'
p543
V717 Dolores, 717 Dolores St, Stanford, CA 94305, USA
p544
sS'37.4377183:-122.2046022'
p545
V1471-1499 Franks Ln, West Menlo Park, CA 94025, USA
p546
sS'37.420957:-122.1695542'
p547
V551-599 Lane W, Stanford, CA 94305, USA
p548
sS'37.4387411:-122.1612704'
p549
V841 CA-82, Palo Alto, CA 94301, USA
p550
sS'37.4377322:-122.2043229'
p551
V1460-1470 Franks Ln, West Menlo Park, CA 94025, USA
p552
sS'37.4265691:-122.1665199'
p553
V618-792 Crothers Way, Stanford, CA 94305, USA
p554
sS'37.4378342:-122.1585749'
p555
V15 Embarcadero Rd, Palo Alto, CA 94301, USA
p556
sS'37.4208674:-122.1700343'
p557
V675 Lomita Dr, Stanford, CA 94305, USA
p558
sS'37.4209146:-122.1699662'
p559
V675 Lomita Dr, Stanford, CA 94305, USA
p560
sS'37.4249196:-122.1687563'
p561
V519 Lasuen Mall, Stanford, CA 94305, USA
p562
sS'37.4262589:-122.1459207'
p563
V441 Cambridge Ave, Palo Alto, CA 94306, USA
p564
sS'37.43095:-122.1542526'
p565
V1600 El Camino Real, Palo Alto, CA 94306, USA
p566
sS'37.4210048:-122.1698442'
p567
V675 Lomita Dr, Stanford, CA 94305, USA
p568
sS'37.4377759:-122.204518'
p569
V1490-1498 Franks Ln, West Menlo Park, CA 94025, USA
p570
sS'37.4335915:-122.1975958'
p571
V1975 Santa Cruz Ave, Menlo Park, CA 94025, USA
p572
sS'37.4209336:-122.1699348'
p573
V675 Lomita Dr, Stanford, CA 94305, USA
p574
sS'37.4209435:-122.1699187'
p575
V675 Lomita Dr, Stanford, CA 94305, USA
p576
sS'37.4220313:-122.1701455'
p577
V500 Lane W, Stanford, CA 94305, USA
p578
sS'37.4239585:-122.1704278'
p579
V575-615 Lagunita Dr, Stanford, CA 94305, USA
p580
sS'37.4209716:-122.1699684'
p581
V675 Lomita Dr, Stanford, CA 94305, USA
p582
sS'37.4263478:-122.1877666'
p583
VFremont Rd, Stanford, CA 94305, USA
p584
sS'37.4382804:-122.1597641'
p585
VBuilding 2, 75, 855 El Camino Real, Palo Alto, CA 94301, USA
p586
sS'37.4207409:-122.1698025'
p587
V551-599 Lane W, Stanford, CA 94305, USA
p588
sS'37.4295011:-122.1721425'
p589
V385 Serra Mall, Stanford, CA 94305, USA
p590
sS'37.4212259:-122.1701792'
p591
V675 Lomita Dr, Stanford, CA 94305, USA
p592
sS'37.4298647:-122.1729372'
p593
VN - South Axis, Stanford, CA 94305, USA
p594
sS'37.4282259:-122.1667144'
p595
V551 Serra Mall, Stanford, CA 94305, USA
p596
sS'37.4209123:-122.1699798'
p597
V675 Lomita Dr, Stanford, CA 94305, USA
p598
sS'37.420912:-122.1698718'
p599
V675 Lomita Dr, Stanford, CA 94305, USA
p600
sS'37.4302816:-122.154575'
p601
V691 Pampas Ln, Stanford, CA 94305, USA
p602
sS'37.4427497:-122.1597688'
p603
V728 Emerson St, Palo Alto, CA 94301, USA
p604
sS'37.420912:-122.1699785'
p605
V675 Lomita Dr, Stanford, CA 94305, USA
p606
sS'37.4378802:-122.1597264'
p607
V1-13 Embarcadero Rd, Palo Alto, CA 94301, USA
p608
sS'37.4291006:-122.1664888'
p609
V551 Serra Mall, Stanford, CA 94305, USA
p610
sS'37.420956:-122.1699619'
p611
V675 Lomita Dr, Stanford, CA 94305, USA
p612
sS'37.4272422:-122.1712482'
p613
VWomen's Restroom, Stanford, CA 94305, USA
p614
sS'37.4524472:-122.1830532'
p615
V1049-1057 Doyle St, Menlo Park, CA 94025, USA
p616
sS'37.4470875:-122.1720459'
p617
V15 CA-82, Menlo Park, CA 94025, USA
p618
sS'37.4344234:-122.1343249'
p619
VOregon Expy, Palo Alto, CA 94301, USA
p620
sS'37.4240612:-122.1712334'
p621
V459 Lagunita Dr, Stanford, CA 94305, USA
p622
sS'37.4209072:-122.1700267'
p623
V675 Lomita Dr, Stanford, CA 94305, USA
p624
sS'37.4285511:-122.1707478'
p625
V380 Serra Mall, Stanford, CA 94305, USA
p626
sS'37.4197029:-122.1741582'
p627
V1115 Campus Drive, Stanford, CA 94305, USA
p628
sS'37.4377136:-122.2043165'
p629
V1460-1470 Franks Ln, West Menlo Park, CA 94025, USA
p630
sS'37.4280408:-122.1633509'
p631
V645 Knight Way, Stanford, CA 94305, USA
p632
sS'37.4195751:-122.1743456'
p633
VNarnia and EBF Rear Access Rd., Stanford, CA 94305, USA
p634
sS'37.4043782:-122.1464527'
p635
V3406-3494 Foothill Expy, Palo Alto, CA 94304, USA
p636
sS'37.4276986:-122.171609'
p637
VLomita Mall, Stanford, CA 94305, USA
p638
sS'37.4270128:-122.1698163'
p639
VEscondido Rd, Palo Alto, CA 94305, USA
p640
sS'37.4209272:-122.1699392'
p641
V675 Lomita Dr, Stanford, CA 94305, USA
p642
sS'37.4371626:-122.1597904'
p643
V855 El Camino Real, Palo Alto, CA 94301, USA
p644
sS'37.4376468:-122.2043141'
p645
V1460-1470 Franks Ln, West Menlo Park, CA 94025, USA
p646
sS'37.4209258:-122.1698613'
p647
V675 Lomita Dr, Stanford, CA 94305, USA
p648
sS'37.4279282:-122.1684727'
p649
V450 Serra Mall, Stanford, CA 94305, USA
p650
sS'37.42125:-122.1694301'
p651
V551-599 Lane W, Stanford, CA 94305, USA
p652
sS'37.4208331:-122.1699371'
p653
V675 Lomita Dr, Stanford, CA 94305, USA
p654
sS'37.4278669:-122.1762925'
p655
V401-439 Via Ortega, Stanford, CA 94305, USA
p656
sS'37.4315404:-122.1712557'
p657
VKeck Science Building, Stanford, CA 94305, USA
p658
sS'37.4378873:-122.2044385'
p659
V1490 Franks Ln, Menlo Park, CA 94025, USA
p660
sS'37.4276002:-122.1694736'
p661
V526 Lasuen Mall, Stanford, CA 94305, USA
p662
sS'37.4268973:-122.1682602'
p663
V459 Lasuen Mall, Stanford, CA 94305, USA
p664
sS'37.4286804:-122.1715335'
p665
V380 Serra Mall, Stanford, CA 94305, USA
p666
sS'37.4389407:-122.1586041'
p667
V855 El Camino Real, Palo Alto, CA 94301, USA
p668
sS'37.42702:-122.1710423'
p669
VWomen's Restroom, Stanford, CA 94305, USA
p670
sS'37.4392992:-122.1582729'
p671
VBuilding 5, 151, 855 El Camino Real, Palo Alto, CA 94301, USA
p672
sS'37.4217608:-122.1681719'
p673
VHFD, Stanford, CA 94305, USA
p674
sS'37.4335542:-122.1836208'
p675
V1464-1470 Sand Hill Rd, Palo Alto, CA 94304, USA
p676
sS'37.4208529:-122.1699033'
p677
V675 Lomita Dr, Stanford, CA 94305, USA
p678
sS'37.4209342:-122.1696226'
p679
V551-599 Lane W, Stanford, CA 94305, USA
p680
sS'37.4208275:-122.1700421'
p681
V675 Lomita Dr, Stanford, CA 94305, USA
p682
sS'37.4208855:-122.1699414'
p683
V675 Lomita Dr, Stanford, CA 94305, USA
p684
sS'37.4378093:-122.2044467'
p685
V1490 Franks Ln, Menlo Park, CA 94025, USA
p686
sS'37.4384709:-122.1591691'
p687
V855 El Camino Real, Palo Alto, CA 94301, USA
p688
sS'37.447679:-122.1598166'
p689
V448 University Ave, Palo Alto, CA 94301, USA
p690
sS'37.4279866:-122.1687298'
p691
V550 Lasuen Mall, Stanford, CA 94305, USA
p692
sS'37.4208886:-122.1698367'
p693
V675 Lomita Dr, Stanford, CA 94305, USA
p694
sS'37.4209187:-122.1697249'
p695
V551-599 Lane W, Stanford, CA 94305, USA
p696
sS'37.4422992:-122.159361'
p697
V774 Emerson St, Palo Alto, CA 94301, USA
p698
sS'37.4209233:-122.1698429'
p699
V675 Lomita Dr, Stanford, CA 94305, USA
p700
sS'37.4209622:-122.1699254'
p701
V675 Lomita Dr, Stanford, CA 94305, USA
p702
sS'37.428456:-122.1753574'
p703
V473 Via Ortega, Stanford, CA 94305, USA
p704
sS'37.4296001:-122.1539676'
p705
V86 Olmsted Rd, Stanford, CA 94305, USA
p706
sS'37.4248239:-122.1704389'
p707
V524 Lasuen Mall, Stanford, CA 94305, USA
p708
sS'37.4322902:-122.1713502'
p709
V355 Roth Way, Palo Alto, CA 94304, USA
p710
sS'37.7739889:-122.4230048'
p711
V101-111 Page St, San Francisco, CA 94102, USA
p712
sS'37.4378397:-122.2044265'
p713
V1490 Franks Ln, Menlo Park, CA 94025, USA
p714
sS'37.438566:-122.1590451'
p715
V75, 855 El Camino Real, Palo Alto, CA 94301, USA
p716
sS'37.5476042:-122.3110065'
p717
V2001-2099 Wyoming Way, San Mateo, CA 94403, USA
p718
sS'37.4450086:-122.1707223'
p719
V160 Stanford Shopping Center, Palo Alto, CA 94304, USA
p720
sS'37.4256463:-122.1921728'
p721
V2183 Santa Cruz Ave, Menlo Park, CA 94025, USA
p722
sS'37.4228323:-122.1697411'
p723
V500 Mayfield Ave, Stanford, CA 94305, USA
p724
sS'37.4303099:-122.1711969'
p725
V376 Lomita Dr, Stanford, CA 94305, USA
p726
sS'37.4377368:-122.2044041'
p727
V1470-1490 Franks Ln, West Menlo Park, CA 94025, USA
p728
sS'37.4212051:-122.1846005'
p729
V198 Junipero Serra Blvd, Stanford, CA 94305, USA
p730
sS'37.4234398:-122.1702678'
p731
V617-633 Lagunita Dr, Stanford, CA 94305, USA
p732
sS'37.4372845:-122.159687'
p733
V2-6 Embarcadero Rd, Palo Alto, CA 94301, USA
p734
sS'37.4210675:-122.1697709'
p735
V548-598 Lane W, Stanford, CA 94305, USA
p736
sS'37.4440164:-122.1617494'
p737
V548 Emerson St, Palo Alto, CA 94301, USA
p738
sS'37.4531889:-122.1833369'
p739
V610 Santa Cruz Ave, Menlo Park, CA 94025, USA
p740
sS'37.761246:-122.4305108'
p741
V495 Sanchez St, San Francisco, CA 94114, USA
p742
sS'37.419933:-122.1737013'
p743
V1115 Campus Drive, Stanford, CA 94305, USA
p744
sS'37.4450785:-122.170687'
p745
V160 Stanford Shopping Center, Palo Alto, CA 94304, USA
p746
sS'37.4211034:-122.1699891'
p747
V675 Lomita Dr, Stanford, CA 94305, USA
p748
sS'37.4284375:-122.1743784'
p749
V348 Via Pueblo, Stanford, CA 94305, USA
p750
sS'37.4218343:-122.1682114'
p751
VHFD, Stanford, CA 94305, USA
p752
sS'37.4234693:-122.1966604'
p753
V2122-2180 Sand Hill Rd, Menlo Park, CA 94025, USA
p754
sS'37.4176196:-122.1318181'
p755
V3780 CA-82, Palo Alto, CA 94306, USA
p756
sS'37.4297258:-122.1730946'
p757
V353 Serra Mall, Stanford, CA 94305, USA
p758
sS'37.4842194:-122.2266473'
p759
V1099 Middlefield Rd, Redwood City, CA 94063, USA
p760
sS'37.424541:-122.1707102'
p761
VTresidder Memorial Union, 459 Lagunita Dr, Stanford, CA 94305, USA
p762
sS'37.4209372:-122.1699849'
p763
V675 Lomita Dr, Stanford, CA 94305, USA
p764
sS'37.4449405:-122.1614986'
p765
V535 Ramona St, Palo Alto, CA 94301, USA
p766
sS'37.4207979:-122.1703056'
p767
V675 Lomita Dr, Stanford, CA 94305, USA
p768
sS'37.4210474:-122.1697039'
p769
V548-598 Lane W, Stanford, CA 94305, USA
p770
sS'37.4209529:-122.170046'
p771
V675 Lomita Dr, Stanford, CA 94305, USA
p772
sS'37.4260098:-122.1763588'
p773
V373 Santa Teresa St, Stanford, CA 94305, USA
p774
sS'37.4131848:-122.1531597'
p775
V1022-1086 Peter Coutts Rd, Stanford, CA 94305, USA
p776
sS'37.4208603:-122.1700034'
p777
V675 Lomita Dr, Stanford, CA 94305, USA
p778
sS'37.4212232:-122.170334'
p779
V675 Lomita Dr, Stanford, CA 94305, USA
p780
sS'37.4255804:-122.1467624'
p781
V498 Cambridge Ave, Palo Alto, CA 94306, USA
p782
sS'37.4212215:-122.1695528'
p783
V548-598 Lane W, Stanford, CA 94305, USA
p784
sS'37.4241463:-122.1708713'
p785
VTresidder Memorial Union, 459 Lagunita Dr, Stanford, CA 94305, USA
p786
sS'37.420914:-122.1700746'
p787
V675 Lomita Dr, Stanford, CA 94305, USA
p788
sS'37.4238126:-122.1705297'
p789
V575-615 Lagunita Dr, Stanford, CA 94305, USA
p790
sS'37.4209108:-122.1699401'
p791
V675 Lomita Dr, Stanford, CA 94305, USA
p792
sS'37.425708:-122.1674225'
p793
V560 Escondido Mall, Stanford, CA 94305, USA
p794
sS'37.785083:-122.4274242'
p795
V1464-1498 Geary Blvd, San Francisco, CA 94109, USA
p796
sS'37.4279962:-122.1761666'
p797
VS Service Rd, Stanford, CA 94305, USA
p798
sS'37.4276286:-122.1902495'
p799
V2015-2037 Sand Hill Rd, Stanford, CA 94305, USA
p800
sS'37.7697957:-122.4487192'
p801
V1603 Haight St, San Francisco, CA 94117, USA
p802
sS'37.4265335:-122.1767295'
p803
VVia Ortega Dr, Stanford, CA 94305, USA
p804
sS'37.4207727:-122.1695493'
p805
V548 Lane W, Stanford, CA 94305, USA
p806
sS'37.4209966:-122.1699006'
p807
V675 Lomita Dr, Stanford, CA 94305, USA
p808
sS'37.420929:-122.1698344'
p809
V675 Lomita Dr, Stanford, CA 94305, USA
p810
sS'37.4231797:-122.1861086'
p811
VFremont Rd, Stanford, CA 94305, USA
p812
sS'37.4270878:-122.169874'
p813
VEscondido Rd, Palo Alto, CA 94305, USA
p814
sS'37.4209187:-122.1700123'
p815
V675 Lomita Dr, Stanford, CA 94305, USA
p816
sS'37.4384497:-122.1591524'
p817
V855 El Camino Real, Palo Alto, CA 94301, USA
p818
sS'37.4259852:-122.1684187'
p819
V488 Escondido Mall, Stanford, CA 94305, USA
p820
sS'37.4212976:-122.1627974'
p821
V539 Cowell Ln, Stanford, CA 94305, USA
p822
sS'37.447402:-122.15968'
p823
V444 University Ave, Palo Alto, CA 94301, USA
p824
sS'37.4225886:-122.1701158'
p825
V438-498 Mayfield Ave, Stanford, CA 94305, USA
p826
sS'37.4244955:-122.1704565'
p827
V459 Lagunita Dr, Stanford, CA 94305, USA
p828
sS'37.4208938:-122.1697904'
p829
V551-599 Lane W, Stanford, CA 94305, USA
p830
sS'37.7698079:-122.4495638'
p831
V1654 Haight St, San Francisco, CA 94117, USA
p832
sS'37.4378789:-122.1602105'
p833
V891-899 Betty Meltzer Memorial Hwy, Palo Alto, CA 94301, USA
p834
sS'37.4282659:-122.1753296'
p835
V473 Via Ortega, Stanford, CA 94305, USA
p836
sS'37.4290985:-122.1728539'
p837
VWilliam R. Hewlett Teaching Center, 370 Serra Mall, Stanford, CA 94305, USA
p838
sS'37.4377907:-122.2043579'
p839
V1470 Franks Ln, Menlo Park, CA 94025, USA
p840
sS'37.4208599:-122.1699363'
p841
V675 Lomita Dr, Stanford, CA 94305, USA
p842
sS'37.4284933:-122.1711653'
p843
V380 Serra Mall, Stanford, CA 94305, USA
p844
sS'37.4385451:-122.1594348'
p845
V75, 855 El Camino Real, Palo Alto, CA 94301, USA
p846
sS'37.4209219:-122.1699641'
p847
V675 Lomita Dr, Stanford, CA 94305, USA
p848
sS'37.4210911:-122.1694024'
p849
V551-599 Lane W, Stanford, CA 94305, USA
p850
sS'37.425373:-122.1708712'
p851
V536-572 Duena St, Stanford, CA 94305, USA
p852
sS'37.428306:-122.1715893'
p853
V452 Lomita Mall, Stanford, CA 94305, USA
p854
sS'37.4155816:-122.1279013'
p855
V4007-4047 El Camino Real, Palo Alto, CA 94306, USA
p856
sS'37.4209957:-122.1700751'
p857
V675 Lomita Dr, Stanford, CA 94305, USA
p858
sS'37.4208901:-122.1699404'
p859
V675 Lomita Dr, Stanford, CA 94305, USA
p860
sS'37.420809:-122.1701991'
p861
V675 Lomita Dr, Stanford, CA 94305, USA
p862
sS'37.4377618:-122.2043592'
p863
V1470-1490 Franks Ln, West Menlo Park, CA 94025, USA
p864
sS'37.4211859:-122.1700674'
p865
V675 Lomita Dr, Stanford, CA 94305, USA
p866
sS'37.4208617:-122.1699254'
p867
V675 Lomita Dr, Stanford, CA 94305, USA
p868
sS'37.4218279:-122.1681462'
p869
VHFD, Stanford, CA 94305, USA
p870
sS'37.4321932:-122.1793168'
p871
V1265 Welch Rd, Palo Alto, CA 94305, USA
p872
sS'37.4208185:-122.1699808'
p873
V675 Lomita Dr, Stanford, CA 94305, USA
p874
sS'37.4210574:-122.1698799'
p875
V675 Lomita Dr, Stanford, CA 94305, USA
p876
sS'37.4208779:-122.1701882'
p877
V675 Lomita Dr, Stanford, CA 94305, USA
p878
sS'37.4299476:-122.1730305'
p879
VN - South Axis, Stanford, CA 94305, USA
p880
sS'37.4239774:-122.1672941'
p881
VCrown Quadrangle, 559 Nathan Abbott Way, Stanford, CA 94305, USA
p882
sS'37.4208665:-122.1699838'
p883
V675 Lomita Dr, Stanford, CA 94305, USA
p884
sS'37.4273468:-122.1710981'
p885
VLomita Mall, Stanford, CA 94305, USA
p886
sS'37.4256157:-122.1730054'
p887
VLomita Mall, Stanford, CA 94305, USA
p888
sS'37.4265793:-122.1911857'
p889
V2047-2051 Sand Hill Rd, Stanford, CA 94305, USA
p890
sS'37.4216904:-122.1693747'
p891
V501-549 Lane W, Stanford, CA 94305, USA
p892
sS'37.4208214:-122.1701138'
p893
V675 Lomita Dr, Stanford, CA 94305, USA
p894
sS'37.4210696:-122.1706313'
p895
V675 Lomita Dr, Stanford, CA 94305, USA
p896
sS'37.4208623:-122.1700289'
p897
V675 Lomita Dr, Stanford, CA 94305, USA
p898
sS'37.4208855:-122.1699888'
p899
V675 Lomita Dr, Stanford, CA 94305, USA
p900
sS'37.4208596:-122.1700365'
p901
V675 Lomita Dr, Stanford, CA 94305, USA
p902
sS'37.4132229:-122.1252259'
p903
V4126 El Camino Way, Palo Alto, CA 94306, USA
p904
sS'37.4227918:-122.1697499'
p905
V500 Mayfield Ave, Stanford, CA 94305, USA
p906
sS'37.4598776:-122.1360011'
p907
V1775 E Bayshore Rd, East Palo Alto, CA 94303, USA
p908
sS'37.4389714:-122.1586567'
p909
V855 El Camino Real, Palo Alto, CA 94301, USA
p910
sS'37.4322:-122.1713034'
p911
V355 Roth Way, Palo Alto, CA 94304, USA
p912
sS'37.4401999:-122.1729831'
p913
V313-331 Arboretum Rd, Palo Alto, CA 94304, USA
p914
sS'37.4300661:-122.1731549'
p915
VGates Computer Science, 353 Serra Mall, Stanford, CA 94305, USA
p916
sS'37.420824:-122.1701719'
p917
V675 Lomita Dr, Stanford, CA 94305, USA
p918
sS'37.4267864:-122.185235'
p919
VFremont Rd, Stanford, CA 94305, USA
p920
sS'37.420816:-122.1698581'
p921
V675 Lomita Dr, Stanford, CA 94305, USA
p922
sS'37.4297964:-122.1730509'
p923
V353 Serra Mall, Stanford, CA 94305, USA
p924
sS'37.4208012:-122.1700724'
p925
V675 Lomita Dr, Stanford, CA 94305, USA
p926
sS'37.4219413:-122.1700967'
p927
V500 Lane W, Stanford, CA 94305, USA
p928
sS'37.7664084:-122.4478366'
p929
V822-826 Clayton St, San Francisco, CA 94117, USA
p930
sS'37.4274197:-122.171036'
p931
VLomita Mall, Stanford, CA 94305, USA
p932
sS'37.4240983:-122.1958673'
p933
V125 Sharon Park Dr, Menlo Park, CA 94025, USA
p934
sS'37.4209341:-122.169987'
p935
V675 Lomita Dr, Stanford, CA 94305, USA
p936
sS'37.4354526:-122.1679031'
p937
V10-26 Palm Dr, Stanford, CA 94305, USA
p938
sS'37.4378755:-122.1602825'
p939
V855 El Camino Real, Palo Alto, CA 94301, USA
p940
sS'37.4458386:-122.1615817'
p941
V514 Bryant St, Palo Alto, CA 94301, USA
p942
sS'37.4256791:-122.1925467'
p943
V2101-2121 Sand Hill Rd, West Menlo Park, CA 94025, USA
p944
sS'37.4304636:-122.1712393'
p945
V376 Lomita Dr, Stanford, CA 94305, USA
p946
sS'37.4255724:-122.1668774'
p947
V530 Escondido Mall, Stanford, CA 94305, USA
p948
sS'37.4209044:-122.1690549'
p949
V551-599 Lane W, Stanford, CA 94305, USA
p950
sS'37.4425083:-122.1706416'
p951
VPalo Alto, CA 94304, USA
p952
sS'37.4209548:-122.1698071'
p953
V548-598 Lane W, Stanford, CA 94305, USA
p954
sS'37.420878:-122.1700221'
p955
V675 Lomita Dr, Stanford, CA 94305, USA
p956
sS'37.4217876:-122.1616945'
p957
V702 Bowdoin Ln, Stanford, CA 94305, USA
p958
sS'37.4384299:-122.1597227'
p959
VBuilding 2, 75, 855 El Camino Real, Palo Alto, CA 94301, USA
p960
sS'37.4209021:-122.1699032'
p961
V675 Lomita Dr, Stanford, CA 94305, USA
p962
sS'37.4208664:-122.1698846'
p963
V675 Lomita Dr, Stanford, CA 94305, USA
p964
sS'37.4209016:-122.1699787'
p965
V675 Lomita Dr, Stanford, CA 94305, USA
p966
sS'37.4446787:-122.1611717'
p967
V581 Ramona St, Palo Alto, CA 94301, USA
p968
sS'37.4209138:-122.1699566'
p969
V675 Lomita Dr, Stanford, CA 94305, USA
p970
sS'37.4214015:-122.1692898'
p971
V551-599 Lane W, Stanford, CA 94305, USA
p972
sS'37.5788448:-122.3491347'
p973
V398 Primrose Rd, Burlingame, CA 94010, USA
p974
sS'37.4451378:-122.1708012'
p975
V160 Stanford Shopping Center, Palo Alto, CA 94304, USA
p976
sS'37.4319338:-122.1792696'
p977
V1265 Welch Rd, Stanford, CA 94305, USA
p978
sS'37.4210608:-122.1700588'
p979
V675 Lomita Dr, Stanford, CA 94305, USA
p980
sS'37.4464307:-122.159602'
p981
V560 Waverley St, Palo Alto, CA 94301, USA
p982
sS'37.4281312:-122.1710241'
p983
V380 Serra Mall, Stanford, CA 94305, USA
p984
sS'37.4203785:-122.1706928'
p985
V1035 Campus Drive, Stanford, CA 94305, USA
p986
sS'37.4209311:-122.0932478'
p987
V1159 N Rengstorff Ave, Mountain View, CA 94043, USA
p988
sS'37.4306037:-122.1711734'
p989
V376 Lomita Dr, Stanford, CA 94305, USA
p990
sS'37.4216337:-122.1715623'
p991
V657-699 Lomita Dr, Stanford, CA 94305, USA
p992
sS'37.4212996:-122.1700325'
p993
V675 Lomita Dr, Stanford, CA 94305, USA
p994
sS'37.4305898:-122.171233'
p995
V376 Lomita Dr, Stanford, CA 94305, USA
p996
sS'37.4244836:-122.1706195'
p997
V459 Lagunita Dr, Stanford, CA 94305, USA
p998
sS'37.421651:-122.1837264'
p999
V91 Links Rd, Stanford, CA 94305, USA
p1000
sS'37.4306093:-122.1711998'
p1001
V376 Lomita Dr, Stanford, CA 94305, USA
p1002
sS'37.4385156:-122.1590087'
p1003
V855 El Camino Real, Palo Alto, CA 94301, USA
p1004
sS'37.4251332:-122.1705112'
p1005
V520 Lasuen Mall, Stanford, CA 94305, USA
p1006
sS'37.4380185:-122.1584994'
p1007
V15-43 Embarcadero Rd, Palo Alto, CA 94301, USA
p1008
sS'37.428582:-122.1755653'
p1009
V475 Via Ortega, Palo Alto, CA 94305, USA
p1010
sS'37.4207705:-122.1702655'
p1011
V675 Lomita Dr, Stanford, CA 94305, USA
p1012
sS'37.4264314:-122.1594205'
p1013
V737 Campus Drive, Stanford, CA 94305, USA
p1014
sS'37.4208676:-122.1700899'
p1015
V675 Lomita Dr, Stanford, CA 94305, USA
p1016
sS'37.4236643:-122.1966222'
p1017
V2122-2180 Sand Hill Rd, Menlo Park, CA 94025, USA
p1018
sS'37.4209123:-122.169943'
p1019
V675 Lomita Dr, Stanford, CA 94305, USA
p1020
sS'37.425538:-122.1775768'
p1021
V324 Santa Teresa St, Stanford, CA 94305, USA
p1022
sS'37.4374129:-122.203634'
p1023
V1410 Franks Ln, Menlo Park, CA 94025, USA
p1024
sS'37.4199722:-122.1736075'
p1025
V1115 Campus Drive, Stanford, CA 94305, USA
p1026
sS'37.4273055:-122.1708981'
p1027
VWomen's Restroom, Stanford, CA 94305, USA
p1028
sS'37.4256962:-122.1673834'
p1029
V560 Escondido Mall, Stanford, CA 94305, USA
p1030
sS'37.4214684:-122.1700691'
p1031
V675 Lomita Dr, Stanford, CA 94305, USA
p1032
sS'37.4261983:-122.1767936'
p1033
VVia Ortega Dr, Stanford, CA 94305, USA
p1034
sS'37.4391232:-122.1583135'
p1035
VEmbarcadero Bike Path, Palo Alto, CA 94301, USA
p1036
sS'37.4377019:-122.2040367'
p1037
V1440-1460 Franks Ln, West Menlo Park, CA 94025, USA
p1038
sS'37.4212813:-122.1694579'
p1039
V548-598 Lane W, Stanford, CA 94305, USA
p1040
sS'37.4235555:-122.1700173'
p1041
V617-633 Lagunita Dr, Stanford, CA 94305, USA
p1042
sS'37.428031:-122.1682867'
p1043
V539-561 Lasuen Mall, Stanford, CA 94305, USA
p1044
sS'37.4218455:-122.1700784'
p1045
V500 Lane W, Stanford, CA 94305, USA
p1046
sS'37.4209832:-122.1698849'
p1047
V675 Lomita Dr, Stanford, CA 94305, USA
p1048
sS'37.4266575:-122.1934442'
p1049
V2159 Santa Cruz Ave, Menlo Park, CA 94025, USA
p1050
sS'37.4256673:-122.1925602'
p1051
V2101-2121 Sand Hill Rd, West Menlo Park, CA 94025, USA
p1052
sS'37.7648612:-122.4322809'
p1053
V2267-2269 Market St, San Francisco, CA 94114, USA
p1054
sS'37.4206613:-122.1705849'
p1055
V675 Lomita Dr, Stanford, CA 94305, USA
p1056
sS'37.4209915:-122.16993'
p1057
V675 Lomita Dr, Stanford, CA 94305, USA
p1058
sS'37.4255777:-122.1671497'
p1059
V530 Escondido Mall, Stanford, CA 94305, USA
p1060
sS'37.429152:-122.1672263'
p1061
V518 Memorial Way, Stanford, CA 94305, USA
p1062
sS'37.4168433:-122.1299161'
p1063
V3901 El Camino Real, Palo Alto, CA 94306, USA
p1064
sS'37.4218099:-122.1680606'
p1065
VHFD, Stanford, CA 94305, USA
p1066
sS'37.4209304:-122.1699163'
p1067
V675 Lomita Dr, Stanford, CA 94305, USA
p1068
sS'37.4253375:-122.1681598'
p1069
V488 Escondido Mall, Stanford, CA 94305, USA
p1070
sS'37.4209168:-122.1699132'
p1071
V675 Lomita Dr, Stanford, CA 94305, USA
p1072
sS'37.426945:-122.1710398'
p1073
VWomen's Restroom, Stanford, CA 94305, USA
p1074
sS'37.4209074:-122.1699738'
p1075
V675 Lomita Dr, Stanford, CA 94305, USA
p1076
sS'37.4444125:-122.1623439'
p1077
V501 Emerson St, Palo Alto, CA 94301, USA
p1078
sS'37.4260958:-122.1889966'
p1079
V2039-2045 Sand Hill Rd, Stanford, CA 94305, USA
p1080
sS'37.4377431:-122.2044116'
p1081
V1470-1490 Franks Ln, West Menlo Park, CA 94025, USA
p1082
sS'37.4208882:-122.1699774'
p1083
V675 Lomita Dr, Stanford, CA 94305, USA
p1084
sS'37.420876:-122.1700345'
p1085
V675 Lomita Dr, Stanford, CA 94305, USA
p1086
sS'37.4377223:-122.204407'
p1087
V1470-1490 Franks Ln, West Menlo Park, CA 94025, USA
p1088
sS'37.4208568:-122.1697557'
p1089
V551-599 Lane W, Stanford, CA 94305, USA
p1090
sS'37.4237345:-122.1702409'
p1091
V617 Lagunita Dr, Stanford, CA 94305, USA
p1092
sS'37.4265758:-122.1765614'
p1093
VVia Ortega Dr, Stanford, CA 94305, USA
p1094
sS'37.4242073:-122.1709089'
p1095
VTresidder Memorial Union, 459 Lagunita Dr, Stanford, CA 94305, USA
p1096
sS'37.4255185:-122.1709651'
p1097
V574-598 Duena St, Stanford, CA 94305, USA
p1098
sS'37.42067:-122.1691569'
p1099
V677-699 Campus Drive, Stanford, CA 94305, USA
p1100
sS'37.4239336:-122.170776'
p1101
VTresidder Memorial Union, 459 Lagunita Dr, Stanford, CA 94305, USA
p1102
sS'37.4208264:-122.169704'
p1103
V551-599 Lane W, Stanford, CA 94305, USA
p1104
sS'37.4209116:-122.1698888'
p1105
V675 Lomita Dr, Stanford, CA 94305, USA
p1106
sS'37.4240005:-122.1707582'
p1107
VTresidder Memorial Union, 459 Lagunita Dr, Stanford, CA 94305, USA
p1108
sS'37.4209451:-122.1698761'
p1109
V675 Lomita Dr, Stanford, CA 94305, USA
p1110
sS'37.4197661:-122.1691768'
p1111
V502-550 San Juan St, Stanford, CA 94305, USA
p1112
sS'37.4344883:-122.2071171'
p1113
V2100 Cedar Ave, Menlo Park, CA 94025, USA
p1114
sS'37.4247746:-122.1706826'
p1115
V524 Duena St, Stanford, CA 94305, USA
p1116
sS'37.4415295:-122.1657172'
p1117
VBetty Meltzer Memorial Hwy & El Camino Real & Palm Dr, Palo Alto, CA 94305, USA
p1118
sS'37.4324108:-122.1635106'
p1119
V297 Galvez St, Stanford, CA 94305, USA
p1120
sS'37.4272597:-122.1907912'
p1121
V2015-2037 Sand Hill Rd, Stanford, CA 94305, USA
p1122
sS'37.4270421:-122.1698523'
p1123
VEscondido Rd, Palo Alto, CA 94305, USA
p1124
sS'37.4209384:-122.1700439'
p1125
V675 Lomita Dr, Stanford, CA 94305, USA
p1126
sS'37.4245778:-122.1701321'
p1127
V300-320 Lasuen Mall, Stanford, CA 94305, USA
p1128
sS'37.4207483:-122.169464'
p1129
V548-598 Lane W, Stanford, CA 94305, USA
p1130
sS'37.4221643:-122.170007'
p1131
V500 Lane W, Stanford, CA 94305, USA
p1132
sS'37.4403136:-122.1634807'
p1133
V627-675 Betty Meltzer Memorial Hwy, Palo Alto, CA 94301, USA
p1134
sS'37.4208873:-122.1700355'
p1135
V675 Lomita Dr, Stanford, CA 94305, USA
p1136
sS'37.4374427:-122.2037008'
p1137
V1420 Franks Ln, Menlo Park, CA 94025, USA
p1138
sS'37.4209237:-122.1701845'
p1139
V675 Lomita Dr, Stanford, CA 94305, USA
p1140
sS'37.421097:-122.1697944'
p1141
V548-598 Lane W, Stanford, CA 94305, USA
p1142
sS'37.4238284:-122.1704132'
p1143
V575-615 Lagunita Dr, Stanford, CA 94305, USA
p1144
sS'37.4209106:-122.1699708'
p1145
V675 Lomita Dr, Stanford, CA 94305, USA
p1146
sS'37.4164809:-122.1304036'
p1147
V3896 El Camino Real, Palo Alto, CA 94306, USA
p1148
sS'37.4209422:-122.1700359'
p1149
V675 Lomita Dr, Stanford, CA 94305, USA
p1150
sS'37.4282962:-122.1693805'
p1151
V450 Serra Mall, Stanford, CA 94305, USA
p1152
sS'37.4237585:-122.1704461'
p1153
V575-615 Lagunita Dr, Stanford, CA 94305, USA
p1154
sS'37.4306129:-122.1711426'
p1155
V376 Lomita Dr, Stanford, CA 94305, USA
p1156
sS'37.4209177:-122.1700103'
p1157
V675 Lomita Dr, Stanford, CA 94305, USA
p1158
sS'37.4209249:-122.1699893'
p1159
V675 Lomita Dr, Stanford, CA 94305, USA
p1160
sS'37.4209268:-122.1699624'
p1161
V675 Lomita Dr, Stanford, CA 94305, USA
p1162
sS'37.4209334:-122.1700163'
p1163
V675 Lomita Dr, Stanford, CA 94305, USA
p1164
sS'37.4208791:-122.1699465'
p1165
V675 Lomita Dr, Stanford, CA 94305, USA
p1166
sS'37.7662137:-122.4479134'
p1167
V835 Clayton St, San Francisco, CA 94117, USA
p1168
sS'37.4383399:-122.160435'
p1169
V855 El Camino Real, Palo Alto, CA 94301, USA
p1170
sS'37.4211036:-122.1701122'
p1171
V675 Lomita Dr, Stanford, CA 94305, USA
p1172
sS'37.4208994:-122.1699814'
p1173
V675 Lomita Dr, Stanford, CA 94305, USA
p1174
sS'37.4183637:-122.1331203'
p1175
V3636 El Camino Real, Palo Alto, CA 94306, USA
p1176
sS'37.445172:-122.1623775'
p1177
V233 University Ave, Palo Alto, CA 94301, USA
p1178
sS'37.434068:-122.1535734'
p1179
V31-59 Churchill Ave, Palo Alto, CA 94306, USA
p1180
sS'37.3958959:-122.101707'
p1181
V2098 CA-82, Mountain View, CA 94040, USA
p1182
sS'37.4251132:-122.1705328'
p1183
V520 Lasuen Mall, Stanford, CA 94305, USA
p1184
sS'37.4210342:-122.1698581'
p1185
V675 Lomita Dr, Stanford, CA 94305, USA
p1186
sS'37.4257269:-122.1921027'
p1187
V2183 Santa Cruz Ave, Menlo Park, CA 94025, USA
p1188
sS'37.4384237:-122.1595695'
p1189
VBuilding 2, 75, 855 El Camino Real, Palo Alto, CA 94301, USA
p1190
sS'37.4208786:-122.169958'
p1191
V675 Lomita Dr, Stanford, CA 94305, USA
p1192
sS'37.4525649:-122.1828614'
p1193
V1042-1046 Doyle St, Menlo Park, CA 94025, USA
p1194
sS'37.4441789:-122.1702716'
p1195
V82-98 Stanford Shopping Center, Palo Alto, CA 94304, USA
p1196
sS'37.4247554:-122.1694374'
p1197
V359 Lasuen Mall, Stanford, CA 94305, USA
p1198
sS'37.4235877:-122.1970314'
p1199
V325 Sharon Park Dr, Menlo Park, CA 94025, USA
p1200
sS'37.4209044:-122.1699909'
p1201
V675 Lomita Dr, Stanford, CA 94305, USA
p1202
sS'37.7693292:-122.449561'
p1203
V16a Belvedere St, San Francisco, CA 94117, USA
p1204
sS'37.4204774:-122.1706604'
p1205
V1035 Campus Drive, Stanford, CA 94305, USA
p1206
sS'37.4198132:-122.1670092'
p1207
V701-707 Santa Ynez St, Stanford, CA 94305, USA
p1208
sS'37.4224278:-122.1710315'
p1209
V436 Mayfield Ave, Stanford, CA 94305, USA
p1210
sS'37.4376571:-122.2043545'
p1211
V1460-1470 Franks Ln, West Menlo Park, CA 94025, USA
p1212
sS'37.4208536:-122.1702336'
p1213
V675 Lomita Dr, Stanford, CA 94305, USA
p1214
sS'37.4209402:-122.1697731'
p1215
V551-599 Lane W, Stanford, CA 94305, USA
p1216
sS'37.4447961:-122.1708243'
p1217
V144 Stanford Shopping Center, Palo Alto, CA 94304, USA
p1218
sS'37.4209735:-122.1700022'
p1219
V675 Lomita Dr, Stanford, CA 94305, USA
p1220
sS'37.4209326:-122.1699756'
p1221
V675 Lomita Dr, Stanford, CA 94305, USA
p1222
sS'37.4306397:-122.1712718'
p1223
V376 Lomita Dr, Stanford, CA 94305, USA
p1224
sS'37.4205896:-122.170443'
p1225
V675 Lomita Dr, Stanford, CA 94305, USA
p1226
sS'37.420817:-122.1702682'
p1227
V675 Lomita Dr, Stanford, CA 94305, USA
p1228
sS'37.4280165:-122.1686903'
p1229
V550 Lasuen Mall, Stanford, CA 94305, USA
p1230
sS'37.420912:-122.1699537'
p1231
V675 Lomita Dr, Stanford, CA 94305, USA
p1232
sS'37.4274396:-122.1707975'
p1233
V450 Serra Mall, Stanford, CA 94305, USA
p1234
sS'37.4382987:-122.1588767'
p1235
V855 El Camino Real, Palo Alto, CA 94301, USA
p1236
sS'37.4287477:-122.1688484'
p1237
V551 Serra Mall, Stanford, CA 94305, USA
p1238
sS'37.7880832:-122.4077282'
p1239
VThe Dewey Monument, San Francisco, CA 94108, USA
p1240
sS'37.4261538:-122.1774087'
p1241
V285 Santa Teresa St, Stanford, CA 94305, USA
p1242
sS'37.4209432:-122.1700019'
p1243
V675 Lomita Dr, Stanford, CA 94305, USA
p1244
sS'37.419659:-122.1669875'
p1245
VLa Maison Francaise, 610 Mayfield Ave, Stanford, CA 94305, USA
p1246
sS'37.4244171:-122.1694595'
p1247
V531 Lasuen Mall, Stanford, CA 94305, USA
p1248
sS'37.4270056:-122.1674379'
p1249
V882-912 Crothers Way, Stanford, CA 94305, USA
p1250
sS'37.4291196:-122.1729375'
p1251
VWilliam R. Hewlett Teaching Center, 370 Serra Mall, Stanford, CA 94305, USA
p1252
sS'37.4208732:-122.1698885'
p1253
V675 Lomita Dr, Stanford, CA 94305, USA
p1254
sS'37.4263786:-122.16654'
p1255
V571 Lasuen Mall, Stanford, CA 94305, USA
p1256
sS'37.4282862:-122.171108'
p1257
V380 Serra Mall, Stanford, CA 94305, USA
p1258
sS'37.4305145:-122.1710302'
p1259
V376 Lomita Dr, Stanford, CA 94305, USA
p1260
sS'37.4212177:-122.1703561'
p1261
V675 Lomita Dr, Stanford, CA 94305, USA
p1262
sS'37.4209487:-122.1700138'
p1263
V675 Lomita Dr, Stanford, CA 94305, USA
p1264
sS'37.4366699:-122.2042618'
p1265
V1405 Wendy Way, Menlo Park, CA 94025, USA
p1266
sS'37.4379606:-122.1584273'
p1267
V15-43 Embarcadero Rd, Palo Alto, CA 94301, USA
p1268
sS'37.4225896:-122.169562'
p1269
V501-545 Mayfield Ave, Stanford, CA 94305, USA
p1270
sS'37.4278109:-122.1688927'
p1271
V526 Lasuen Mall, Stanford, CA 94305, USA
p1272
sS'37.4239085:-122.1964422'
p1273
V125 Sharon Park Dr, Menlo Park, CA 94025, USA
p1274
sS'37.4290689:-122.1728898'
p1275
VWilliam R. Hewlett Teaching Center, 370 Serra Mall, Stanford, CA 94305, USA
p1276
sS'37.4208781:-122.1698102'
p1277
V675 Lomita Dr, Stanford, CA 94305, USA
p1278
sS'37.4383143:-122.159148'
p1279
V855 El Camino Real, Palo Alto, CA 94301, USA
p1280
sS'37.4215615:-122.1700167'
p1281
V675 Lomita Dr, Stanford, CA 94305, USA
p1282
sS'37.4208269:-122.1700213'
p1283
V675 Lomita Dr, Stanford, CA 94305, USA
p1284
sS'37.4216919:-122.1699774'
p1285
V675 Lomita Dr, Stanford, CA 94305, USA
p1286
sS'37.4299621:-122.1730083'
p1287
VN - South Axis, Stanford, CA 94305, USA
p1288
sS'37.7880635:-122.4076502'
p1289
VThe Dewey Monument, San Francisco, CA 94108, USA
p1290
sS'37.4225678:-122.1700804'
p1291
V498 Mayfield Ave, Stanford, CA 94305, USA
p1292
sS'37.4232666:-122.1700786'
p1293
V635-699 Lagunita Dr, Stanford, CA 94305, USA
p1294
sS'37.4434224:-122.162194'
p1295
V167 Hamilton Ave, Palo Alto, CA 94301, USA
p1296
sS'37.4209315:-122.1699645'
p1297
V675 Lomita Dr, Stanford, CA 94305, USA
p1298
sS'37.435031:-122.2074759'
p1299
V2097 Cam De Los Robles, Menlo Park, CA 94025, USA
p1300
sS'37.4209943:-122.1701424'
p1301
V675 Lomita Dr, Stanford, CA 94305, USA
p1302
sS'37.4448627:-122.1706958'
p1303
V144 Stanford Shopping Center, Palo Alto, CA 94304, USA
p1304
sS'37.420287:-122.1719323'
p1305
V660 Lomita Ct, Stanford, CA 94305, USA
p1306
sS'37.4244982:-122.1703075'
p1307
V524 Lasuen Mall, Stanford, CA 94305, USA
p1308
sS'37.4283914:-122.163603'
p1309
VArguello Way, Stanford, CA 94305, USA
p1310
sS'37.4463999:-122.15959'
p1311
V560 Waverley St, Palo Alto, CA 94301, USA
p1312
sS'37.420884:-122.1698062'
p1313
V551-599 Lane W, Stanford, CA 94305, USA
p1314
sS'37.4377014:-122.2044572'
p1315
V1470-1490 Franks Ln, West Menlo Park, CA 94025, USA
p1316
sS'37.4299051:-122.1730137'
p1317
VN - South Axis, Stanford, CA 94305, USA
p1318
sS'37.484242:-122.2266286'
p1319
V1099 Middlefield Rd, Redwood City, CA 94063, USA
p1320
sS'37.4438532:-122.17228'
p1321
VPalo Alto, CA 94304, USA
p1322
sS'37.4377241:-122.2043945'
p1323
V1470-1490 Franks Ln, West Menlo Park, CA 94025, USA
p1324
sS'37.4214529:-122.1602121'
p1325
V730 Bowdoin St, Stanford, CA 94305, USA
p1326
sS'37.4287397:-122.1695734'
p1327
V450 Serra Mall, Stanford, CA 94305, USA
p1328
sS'37.4218643:-122.1682005'
p1329
VHFD, Stanford, CA 94305, USA
p1330
sS'37.4209235:-122.1699857'
p1331
V675 Lomita Dr, Stanford, CA 94305, USA
p1332
sS'37.4209393:-122.1699677'
p1333
V675 Lomita Dr, Stanford, CA 94305, USA
p1334
sS'37.4377924:-122.2044152'
p1335
V1490 Franks Ln, Menlo Park, CA 94025, USA
p1336
sS'37.4236353:-122.196804'
p1337
V325 Sharon Park Dr, Menlo Park, CA 94025, USA
p1338
sS'37.4342051:-122.1604504'
p1339
VStanford, CA 94305, USA
p1340
sS'37.420449:-122.170477'
p1341
V1035 Campus Drive, Stanford, CA 94305, USA
p1342
sS'37.429879:-122.1729522'
p1343
VN - South Axis, Stanford, CA 94305, USA
p1344
sS'37.4208187:-122.1701146'
p1345
V675 Lomita Dr, Stanford, CA 94305, USA
p1346
sS'37.4271034:-122.1699121'
p1347
VEscondido Rd, Palo Alto, CA 94305, USA
p1348
sS'37.4262932:-122.1695303'
p1349
V488 Escondido Mall, Stanford, CA 94305, USA
p1350
sS'37.4208084:-122.1701434'
p1351
V675 Lomita Dr, Stanford, CA 94305, USA
p1352
sS'37.4488699:-122.1934873'
p1353
V150-158 Valparaiso Ave, Menlo Park, CA 94027, USA
p1354
sS'37.4262754:-122.1733402'
p1355
V380 Panama Mall, Stanford, CA 94305, USA
p1356
sS'37.4208964:-122.1699281'
p1357
V675 Lomita Dr, Stanford, CA 94305, USA
p1358
sS'37.4209934:-122.1699792'
p1359
V675 Lomita Dr, Stanford, CA 94305, USA
p1360
sS'37.4210512:-122.1695769'
p1361
V551-599 Lane W, Stanford, CA 94305, USA
p1362
sS'37.4278353:-122.176042'
p1363
VS Service Rd, Stanford, CA 94305, USA
p1364
sS'37.7872924:-122.4034309'
p1365
V22 3rd St, San Francisco, CA 94103, USA
p1366
sS'37.4231455:-122.1701059'
p1367
V635 Lagunita Dr, Stanford, CA 94305, USA
p1368
sS'37.4236774:-122.1859252'
p1369
VFremont Rd, Stanford, CA 94305, USA
p1370
sS'37.4284511:-122.1710387'
p1371
V380 Serra Mall, Stanford, CA 94305, USA
p1372
sS'37.42172:-122.1702319'
p1373
V675 Lomita Dr, Stanford, CA 94305, USA
p1374
sS'37.4200109:-122.174738'
p1375
VNarnia, 1135 Campus Drive, Stanford, CA 94305, USA
p1376
sS'37.7886906:-122.4071167'
p1377
V300 Post St, San Francisco, CA 94108, USA
p1378
sS'37.4261785:-122.1672963'
p1379
V571 Lasuen Mall, Stanford, CA 94305, USA
p1380
sS'37.4600424:-122.135571'
p1381
V1775 E Bayshore Rd, East Palo Alto, CA 94303, USA
p1382
sS'37.4213333:-122.1869861'
p1383
V198 Junipero Serra Blvd, Stanford, CA 94305, USA
p1384
sS'37.4398211:-122.1710366'
p1385
V480 Quarry Rd, Palo Alto, CA 94304, USA
p1386
sS'37.4378497:-122.2044805'
p1387
V1490 Franks Ln, Menlo Park, CA 94025, USA
p1388
sS'37.4377819:-122.2044009'
p1389
V1490 Franks Ln, Menlo Park, CA 94025, USA
p1390
sS'37.4267859:-122.1772104'
p1391
VArrillaga Outdoor Education and Recreation Center, 285 Santa Teresa St, Stanford, CA 94305, USA
p1392
sS'37.4396199:-122.151845'
p1393
V298 Embarcadero Rd, Palo Alto, CA 94301, USA
p1394
sS'37.4205647:-122.1708846'
p1395
V675 Lomita Dr, Stanford, CA 94305, USA
p1396
sS'37.4208967:-122.1698437'
p1397
V675 Lomita Dr, Stanford, CA 94305, USA
p1398
sS'37.443656:-122.1614079'
p1399
V180 Hamilton Ave, Palo Alto, CA 94301, USA
p1400
sS'37.4240701:-122.1706936'
p1401
VTresidder Memorial Union, 459 Lagunita Dr, Stanford, CA 94305, USA
p1402
sS'37.4279573:-122.1493885'
p1403
V1963 CA-82, Palo Alto, CA 94306, USA
p1404
sS'37.420853:-122.1699641'
p1405
V675 Lomita Dr, Stanford, CA 94305, USA
p1406
sS'37.4299215:-122.173057'
p1407
VGates Computer Science, 353 Serra Mall, Stanford, CA 94305, USA
p1408
sS'37.427321:-122.1711223'
p1409
VLomita Mall, Stanford, CA 94305, USA
p1410
sS'37.4214663:-122.1690857'
p1411
V551 Lane W, Stanford, CA 94305, USA
p1412
sS'37.4220169:-122.1703855'
p1413
V500 Lane W, Stanford, CA 94305, USA
p1414
sS'37.4444613:-122.1632793'
p1415
V165 University Ave, Palo Alto, CA 94301, USA
p1416
sS'37.4250354:-122.1706052'
p1417
V520 Lasuen Mall, Stanford, CA 94305, USA
p1418
sS'37.4203939:-122.1711178'
p1419
V680 Lomita Dr, Stanford, CA 94305, USA
p1420
sS'37.787968:-122.4081361'
p1421
VThe Dewey Monument, San Francisco, CA 94108, USA
p1422
sS'37.784012:-122.4270275'
p1423
V1-45 Cleary Ct, San Francisco, CA 94109, USA
p1424
sS'37.4293489:-122.1717945'
p1425
VLomita Mall, Stanford, CA 94305, USA
p1426
sS'37.4224517:-122.1700936'
p1427
V438-498 Mayfield Ave, Stanford, CA 94305, USA
p1428
sS'37.4378346:-122.2044822'
p1429
V1490 Franks Ln, Menlo Park, CA 94025, USA
p1430
sS'37.4208702:-122.1699693'
p1431
V675 Lomita Dr, Stanford, CA 94305, USA
p1432
sS'37.4208747:-122.1700127'
p1433
V675 Lomita Dr, Stanford, CA 94305, USA
p1434
sS'37.426249:-122.1773372'
p1435
V285 Santa Teresa St, Stanford, CA 94305, USA
p1436
sS'37.4253738:-122.1904892'
p1437
VSanta Cruz Ave, Stanford, CA 94305, USA
p1438
sS'37.4208731:-122.1700045'
p1439
V675 Lomita Dr, Stanford, CA 94305, USA
p1440
sS'37.4214149:-122.1697036'
p1441
V675 Lomita Dr, Stanford, CA 94305, USA
p1442
sS'37.4223581:-122.1693926'
p1443
V550 Mayfield Ave, Stanford, CA 94305, USA
p1444
sS'37.4208243:-122.169929'
p1445
V675 Lomita Dr, Stanford, CA 94305, USA
p1446
sS'37.4214091:-122.1698112'
p1447
V675 Lomita Dr, Stanford, CA 94305, USA
p1448
sS'37.4207549:-122.1701349'
p1449
V675 Lomita Dr, Stanford, CA 94305, USA
p1450
sS'37.4307982:-122.15414'
p1451
V1600 El Camino Real, Palo Alto, CA 94306, USA
p1452
sS'37.4212316:-122.170379'
p1453
V675 Lomita Dr, Stanford, CA 94305, USA
p1454
sS'37.4211583:-122.1700025'
p1455
V675 Lomita Dr, Stanford, CA 94305, USA
p1456
sS'37.4305825:-122.1712072'
p1457
V376 Lomita Dr, Stanford, CA 94305, USA
p1458
sS'37.4207958:-122.1699718'
p1459
V675 Lomita Dr, Stanford, CA 94305, USA
p1460
sS'37.4209471:-122.1698578'
p1461
V675 Lomita Dr, Stanford, CA 94305, USA
p1462
sS'37.4284422:-122.1710564'
p1463
V380 Serra Mall, Stanford, CA 94305, USA
p1464
sS'37.4305628:-122.1712283'
p1465
V376 Lomita Dr, Stanford, CA 94305, USA
p1466
sS'37.4192119:-122.1348746'
p1467
V3490 CA-82, Palo Alto, CA 94306, USA
p1468
sS'37.4241994:-122.1708536'
p1469
VTresidder Memorial Union, 459 Lagunita Dr, Stanford, CA 94305, USA
p1470
sS'37.4236303:-122.1706889'
p1471
V575-615 Lagunita Dr, Stanford, CA 94305, USA
p1472
sS'37.4225128:-122.166461'
p1473
VCampus Drive, Stanford, CA 94305, USA
p1474
sS'37.4256512:-122.19219'
p1475
V2183 Santa Cruz Ave, Menlo Park, CA 94025, USA
p1476
sS'37.4377793:-122.2044004'
p1477
V1470-1490 Franks Ln, West Menlo Park, CA 94025, USA
p1478
sS'37.4297524:-122.1962888'
p1479
V2054-2056 Santa Cruz Ave, West Menlo Park, CA 94025, USA
p1480
sS'37.4377124:-122.2043189'
p1481
V1460-1470 Franks Ln, West Menlo Park, CA 94025, USA
p1482
sS'37.4377863:-122.2043396'
p1483
V1470 Franks Ln, Menlo Park, CA 94025, USA
p1484
sS'37.4279542:-122.1701275'
p1485
V450 Serra Mall, Stanford, CA 94305, USA
p1486
sS'37.4208954:-122.1700093'
p1487
V675 Lomita Dr, Stanford, CA 94305, USA
p1488
sS'37.4322839:-122.1713326'
p1489
V355 Roth Way, Palo Alto, CA 94304, USA
p1490
sS'37.421544:-122.1695818'
p1491
V500 Lane W, Stanford, CA 94305, USA
p1492
sS'37.429182:-122.1742131'
p1493
VDavid Packard Electrical Engineering, 350 Serra Mall, Stanford, CA 94305, USA
p1494
sS'37.4279536:-122.1689252'
p1495
V450 Serra Mall, Stanford, CA 94305, USA
p1496
sS'37.4216719:-122.1700761'
p1497
V675 Lomita Dr, Stanford, CA 94305, USA
p1498
sS'37.4208498:-122.1698646'
p1499
V675 Lomita Dr, Stanford, CA 94305, USA
p1500
sS'37.4377336:-122.2043802'
p1501
V1470-1490 Franks Ln, West Menlo Park, CA 94025, USA
p1502
sS'37.4231163:-122.1699293'
p1503
V544 Lasuen Mall, Stanford, CA 94305, USA
p1504
sS'37.4210498:-122.170467'
p1505
V675 Lomita Dr, Stanford, CA 94305, USA
p1506
sS'37.4209033:-122.1697303'
p1507
V551-599 Lane W, Stanford, CA 94305, USA
p1508
sS'37.4413523:-122.1646783'
p1509
V300-716 Betty Meltzer Memorial Hwy, Palo Alto, CA 94301, USA
p1510
sS'37.4281932:-122.1758972'
p1511
VJerry Yang and Akiko Yamazaki Environment and Energy Building (Y2E2), 473 Via Ortega, Stanford, CA 94305, USA
p1512
sS'37.4257856:-122.1707007'
p1513
V439-451 Panama Mall, Stanford, CA 94305, USA
p1514
sS'37.4208284:-122.1696973'
p1515
V551-599 Lane W, Stanford, CA 94305, USA
p1516
sS'37.4377549:-122.2043888'
p1517
V1470-1490 Franks Ln, West Menlo Park, CA 94025, USA
p1518
sS'37.4376382:-122.2041339'
p1519
V1440-1460 Franks Ln, West Menlo Park, CA 94025, USA
p1520
sS'37.4424416:-122.1594912'
p1521
V774 Emerson St, Palo Alto, CA 94301, USA
p1522
sS'37.4226671:-122.1690088'
p1523
V543 Lasuen Mall, Stanford, CA 94305, USA
p1524
sS'37.4299127:-122.1729826'
p1525
VN - South Axis, Stanford, CA 94305, USA
p1526
sS'37.4235934:-122.1970651'
p1527
V325 Sharon Park Dr, Menlo Park, CA 94025, USA
p1528
sS'37.4423716:-122.1594633'
p1529
V774 Emerson St, Palo Alto, CA 94301, USA
p1530
sS'37.4600069:-122.1358207'
p1531
V1771 E Bayshore Rd, East Palo Alto, CA 94303, USA
p1532
sS'37.420617:-122.1702906'
p1533
V675 Lomita Dr, Stanford, CA 94305, USA
p1534
sS'37.429908:-122.1730602'
p1535
VN - South Axis, Stanford, CA 94305, USA
p1536
sS'37.4375606:-122.1597535'
p1537
V1-13 Embarcadero Rd, Palo Alto, CA 94301, USA
p1538
sS'37.4232737:-122.1702605'
p1539
V628 Lagunita Dr, Stanford, CA 94305, USA
p1540
sS'37.4249477:-122.1696024'
p1541
V323-327 Lasuen Mall, Stanford, CA 94305, USA
p1542
sS'37.4208867:-122.1699661'
p1543
V675 Lomita Dr, Stanford, CA 94305, USA
p1544
sS'37.4298537:-122.1730434'
p1545
VN - South Axis, Stanford, CA 94305, USA
p1546
sS'37.4309558:-122.1545677'
p1547
V1600 El Camino Real, Palo Alto, CA 94306, USA
p1548
sS'37.4208156:-122.1699978'
p1549
V675 Lomita Dr, Stanford, CA 94305, USA
p1550
sS'37.4377558:-122.2043384'
p1551
V1470-1490 Franks Ln, West Menlo Park, CA 94025, USA
p1552
sS'37.4209129:-122.1699068'
p1553
V675 Lomita Dr, Stanford, CA 94305, USA
p1554
sS'37.426561:-122.1708198'
p1555
V590 Escondido Mall, Stanford, CA 94305, USA
p1556
sS'37.4299904:-122.1710204'
p1557
V376 Lomita Dr, Stanford, CA 94305, USA
p1558
sS'37.594039:-122.3650088'
p1559
V1333 Old Bayshore Hwy, Burlingame, CA 94010, USA
p1560
sS'37.4255977:-122.1675295'
p1561
V488 Escondido Mall, Stanford, CA 94305, USA
p1562
sS'37.4199109:-122.1749059'
p1563
VNarnia, 1135 Campus Drive, Stanford, CA 94305, USA
p1564
sS'37.437923:-122.1603027'
p1565
V855 El Camino Real, Palo Alto, CA 94301, USA
p1566
sS'37.4226641:-122.1693815'
p1567
V501-545 Mayfield Ave, Stanford, CA 94305, USA
p1568
sS'37.4295583:-122.1675254'
p1569
V518 Memorial Way, Stanford, CA 94305, USA
p1570
sS'37.4208409:-122.1699624'
p1571
V675 Lomita Dr, Stanford, CA 94305, USA
p1572
sS'37.420933:-122.1699658'
p1573
V675 Lomita Dr, Stanford, CA 94305, USA
p1574
sS'37.4249923:-122.1892369'
p1575
V115 Junipero Serra Blvd, Stanford, CA 94305, USA
p1576
sS'37.4209319:-122.1699936'
p1577
V675 Lomita Dr, Stanford, CA 94305, USA
p1578
sS'37.430372:-122.1712773'
p1579
V376 Lomita Dr, Stanford, CA 94305, USA
p1580
sS'37.4529027:-122.1823911'
p1581
V1034-1048 Johnston Ln, Menlo Park, CA 94025, USA
p1582
sS'37.4347722:-122.1678239'
p1583
V4-8 Palm Dr, Stanford, CA 94305, USA
p1584
sS'37.4286555:-122.1703355'
p1585
V450 Serra Mall, Stanford, CA 94305, USA
p1586
sS'37.4169149:-122.1300215'
p1587
V460-498 Ventura Ave, Palo Alto, CA 94306, USA
p1588
sS'37.4168242:-122.1303223'
p1589
V3886 El Camino Real, Palo Alto, CA 94306, USA
p1590
sS'37.4238327:-122.1703123'
p1591
V617 Lagunita Dr, Stanford, CA 94305, USA
p1592
sS'37.4264577:-122.1762418'
p1593
VVia Ortega Dr, Stanford, CA 94305, USA
p1594
sS'37.421033:-122.1700669'
p1595
V675 Lomita Dr, Stanford, CA 94305, USA
p1596
sS'37.4281135:-122.1670372'
p1597
V550 Serra Mall, Stanford, CA 94305, USA
p1598
sS'37.4210797:-122.1700249'
p1599
V675 Lomita Dr, Stanford, CA 94305, USA
p1600
sS'37.4264933:-122.1453143'
p1601
V325-413 New Mayfield Ln, Palo Alto, CA 94306, USA
p1602
sS'37.4298166:-122.1730856'
p1603
V353 Serra Mall, Stanford, CA 94305, USA
p1604
sS'37.4377674:-122.2044729'
p1605
V1470-1490 Franks Ln, West Menlo Park, CA 94025, USA
p1606
sS'37.4386466:-122.159254'
p1607
V75, 855 El Camino Real, Palo Alto, CA 94301, USA
p1608
sS'37.4299253:-122.1730495'
p1609
VGates Computer Science, 353 Serra Mall, Stanford, CA 94305, USA
p1610
sS'37.4287599:-122.1689223'
p1611
V450 Serra Mall, Stanford, CA 94305, USA
p1612
sS'37.4219572:-122.1673885'
p1613
VCampus Drive, Stanford, CA 94305, USA
p1614
sS'37.4211514:-122.169963'
p1615
V675 Lomita Dr, Stanford, CA 94305, USA
p1616
sS'37.4208915:-122.1700255'
p1617
V675 Lomita Dr, Stanford, CA 94305, USA
p1618
sS'37.4211101:-122.169354'
p1619
V551-599 Lane W, Stanford, CA 94305, USA
p1620
sS'37.4177305:-122.1317876'
p1621
V3783 CA-82, Palo Alto, CA 94306, USA
p1622
sS'37.4208783:-122.169998'
p1623
V675 Lomita Dr, Stanford, CA 94305, USA
p1624
sS'37.4209144:-122.1700191'
p1625
V675 Lomita Dr, Stanford, CA 94305, USA
p1626
sS'37.4256359:-122.1926402'
p1627
V2101-2121 Sand Hill Rd, West Menlo Park, CA 94025, USA
p1628
sS'37.4237105:-122.1859557'
p1629
VFremont Rd, Stanford, CA 94305, USA
p1630
sS'37.4209069:-122.1700119'
p1631
V675 Lomita Dr, Stanford, CA 94305, USA
p1632
sS'37.4210208:-122.1700682'
p1633
V675 Lomita Dr, Stanford, CA 94305, USA
p1634
sS'37.429789:-122.1728463'
p1635
V371 Serra Mall, Stanford, CA 94305, USA
p1636
sS'37.7656762:-122.4312236'
p1637
V2213 Market St, San Francisco, CA 94114, USA
p1638
sS'37.4278936:-122.1702903'
p1639
V450 Serra Mall, Stanford, CA 94305, USA
p1640
sS'37.420998:-122.169988'
p1641
V675 Lomita Dr, Stanford, CA 94305, USA
p1642
sS'37.4466357:-122.1597776'
p1643
V558 Waverley St, Palo Alto, CA 94301, USA
p1644
sS'37.4309371:-122.1541984'
p1645
V1600 El Camino Real, Palo Alto, CA 94306, USA
p1646
sS'37.4449:-122.1618494'
p1647
V520 Ramona St, Palo Alto, CA 94301, USA
p1648
sS'37.4269623:-122.1673903'
p1649
V882-912 Crothers Way, Stanford, CA 94305, USA
p1650
sS'37.4281588:-122.1630257'
p1651
V635 Serra St, Stanford, CA 94305, USA
p1652
sS'37.4316616:-122.1790751'
p1653
V1265 Welch Rd, Palo Alto, CA 94305, USA
p1654
sS'37.4253555:-122.1602337'
p1655
V752 Campus Drive, Stanford, CA 94305, USA
p1656
sS'37.4272936:-122.1712099'
p1657
VLomita Mall, Stanford, CA 94305, USA
p1658
sS'37.4256425:-122.1674367'
p1659
V560 Escondido Mall, Stanford, CA 94305, USA
p1660
sS'37.4229263:-122.1668082'
p1661
V563 Salvatierra St, Stanford, CA 94305, USA
p1662
sS'37.437835:-122.2044111'
p1663
V1490 Franks Ln, Menlo Park, CA 94025, USA
p1664
sS'37.4208491:-122.1699372'
p1665
V675 Lomita Dr, Stanford, CA 94305, USA
p1666
sS'37.4182839:-122.1659473'
p1667
V717 Dolores, 717 Dolores St, Stanford, CA 94305, USA
p1668
sS'37.4258819:-122.1472604'
p1669
V2244-2280 Betty Meltzer Memorial Hwy, Palo Alto, CA 94306, USA
p1670
sS'37.4183724:-122.1331121'
p1671
V3636 El Camino Real, Palo Alto, CA 94306, USA
p1672
sS'37.4210161:-122.1699747'
p1673
V675 Lomita Dr, Stanford, CA 94305, USA
p1674
sS'37.4464149:-122.1596048'
p1675
V560 Waverley St, Palo Alto, CA 94301, USA
p1676
sS'37.4223888:-122.1858726'
p1677
VPrivate Resid., 103 Junipero Serra Blvd, Stanford, CA 94305, USA
p1678
sS'37.4209164:-122.1699585'
p1679
V675 Lomita Dr, Stanford, CA 94305, USA
p1680
sS'37.4384847:-122.1595638'
p1681
VBuilding 2, 75, 855 El Camino Real, Palo Alto, CA 94301, USA
p1682
sS'37.4209156:-122.1695034'
p1683
V551-599 Lane W, Stanford, CA 94305, USA
p1684
sS'37.4209075:-122.170033'
p1685
V675 Lomita Dr, Stanford, CA 94305, USA
p1686
sS'37.4307233:-122.1540653'
p1687
V1600 El Camino Real, Palo Alto, CA 94306, USA
p1688
sS'37.427213:-122.1711554'
p1689
VWomen's Restroom, Stanford, CA 94305, USA
p1690
sS'37.4215698:-122.1697109'
p1691
V675 Lomita Dr, Stanford, CA 94305, USA
p1692
sS'37.4264438:-122.1676807'
p1693
V557 Escondido Mall, Stanford, CA 94305, USA
p1694
sS'37.4260488:-122.1706762'
p1695
V524 Duena St, Stanford, CA 94305, USA
p1696
sS'37.4208614:-122.1698027'
p1697
V551-599 Lane W, Stanford, CA 94305, USA
p1698
sS'37.4376939:-122.2042659'
p1699
V1460-1470 Franks Ln, West Menlo Park, CA 94025, USA
p1700
sS'37.4302314:-122.16288'
p1701
V577 Campus Drive, Stanford, CA 94305, USA
p1702
sS'37.4228479:-122.170031'
p1703
V635-699 Lagunita Dr, Stanford, CA 94305, USA
p1704
sS'37.4209087:-122.170016'
p1705
V675 Lomita Dr, Stanford, CA 94305, USA
p1706
sS'37.4206735:-122.1698689'
p1707
V675 Lomita Dr, Stanford, CA 94305, USA
p1708
sS'37.4246545:-122.1707332'
p1709
VTresidder Memorial Union, 459 Lagunita Dr, Stanford, CA 94305, USA
p1710
sS'37.4208592:-122.1702048'
p1711
V675 Lomita Dr, Stanford, CA 94305, USA
p1712
sS'37.4208079:-122.1704153'
p1713
V675 Lomita Dr, Stanford, CA 94305, USA
p1714
sS'37.4208627:-122.1698856'
p1715
V675 Lomita Dr, Stanford, CA 94305, USA
p1716
sS'37.4209125:-122.1702915'
p1717
V675 Lomita Dr, Stanford, CA 94305, USA
p1718
sS'37.4209179:-122.16999'
p1719
V675 Lomita Dr, Stanford, CA 94305, USA
p1720
sS'37.4207894:-122.1698869'
p1721
V675 Lomita Dr, Stanford, CA 94305, USA
p1722
sS'37.4210215:-122.169944'
p1723
V675 Lomita Dr, Stanford, CA 94305, USA
p1724
sS'37.4241916:-122.1708656'
p1725
VTresidder Memorial Union, 459 Lagunita Dr, Stanford, CA 94305, USA
p1726
sS'37.4206033:-122.1714402'
p1727
V680 Lomita Dr, Stanford, CA 94305, USA
p1728
sS'37.420872:-122.1700521'
p1729
V675 Lomita Dr, Stanford, CA 94305, USA
p1730
sS'37.4209485:-122.1696894'
p1731
V551-599 Lane W, Stanford, CA 94305, USA
p1732
sS'37.4241699:-122.1706714'
p1733
V459 Lagunita Dr, Stanford, CA 94305, USA
p1734
sS'37.4168878:-122.1301415'
p1735
V3897-3899 El Camino Real, Palo Alto, CA 94306, USA
p1736
sS'37.4209233:-122.1701389'
p1737
V675 Lomita Dr, Stanford, CA 94305, USA
p1738
sS'37.4229983:-122.1666093'
p1739
V563 Salvatierra St, Stanford, CA 94305, USA
p1740
sS'37.4290856:-122.1665008'
p1741
V551 Serra Mall, Stanford, CA 94305, USA
p1742
sS'37.4208614:-122.169875'
p1743
V675 Lomita Dr, Stanford, CA 94305, USA
p1744
sS'37.4378663:-122.1593192'
p1745
V29 Embarcadero Rd, Palo Alto, CA 94301, USA
p1746
sS'37.4177341:-122.1319875'
p1747
V3770 El Camino Real, Palo Alto, CA 94306, USA
p1748
sS'37.4384446:-122.1589208'
p1749
VBuilding 4, 855 El Camino Real, Palo Alto, CA 94301, USA
p1750
sS'37.420784:-122.1702995'
p1751
V675 Lomita Dr, Stanford, CA 94305, USA
p1752
sS'37.425942:-122.1817588'
p1753
VCampus Drive, Stanford, CA 94305, USA
p1754
sS'37.4210071:-122.1699085'
p1755
V675 Lomita Dr, Stanford, CA 94305, USA
p1756
sS'37.4272508:-122.1710886'
p1757
VWomen's Restroom, Stanford, CA 94305, USA
p1758
sS'37.4208443:-122.1701'
p1759
V675 Lomita Dr, Stanford, CA 94305, USA
p1760
sS'37.4208976:-122.1698443'
p1761
V675 Lomita Dr, Stanford, CA 94305, USA
p1762
sS'37.4213091:-122.1700123'
p1763
V675 Lomita Dr, Stanford, CA 94305, USA
p1764
sS'37.7880195:-122.408664'
p1765
V345 Powell St, San Francisco, CA 94102, USA
p1766
sS'37.4208573:-122.1700307'
p1767
V675 Lomita Dr, Stanford, CA 94305, USA
p1768
sS'37.4208979:-122.1699528'
p1769
V675 Lomita Dr, Stanford, CA 94305, USA
p1770
sS'37.4273451:-122.1716673'
p1771
VLomita Mall, Stanford, CA 94305, USA
p1772
sS'37.4251673:-122.1847185'
p1773
VFremont Rd, Stanford, CA 94305, USA
p1774
sS'37.4213056:-122.1702344'
p1775
V675 Lomita Dr, Stanford, CA 94305, USA
p1776
sS'37.4214392:-122.1699996'
p1777
V675 Lomita Dr, Stanford, CA 94305, USA
p1778
sS'37.4212155:-122.1698819'
p1779
V675 Lomita Dr, Stanford, CA 94305, USA
p1780
sS'37.430674:-122.1782544'
p1781
V206-244 Panama St, Stanford, CA 94305, USA
p1782
sS'37.4247553:-122.1705677'
p1783
V524 Lasuen Mall, Stanford, CA 94305, USA
p1784
sS'37.4236606:-122.1972382'
p1785
V325 Sharon Park Dr, Menlo Park, CA 94025, USA
p1786
sS'37.4183102:-122.1660075'
p1787
V717-721 Dolores St, Stanford, CA 94305, USA
p1788
sS'37.764363:-122.4329365'
p1789
V2298 Market St, San Francisco, CA 94114, USA
p1790
sS'37.4209121:-122.1700853'
p1791
V675 Lomita Dr, Stanford, CA 94305, USA
p1792
sS'37.429028:-122.1714413'
p1793
V380 Serra Mall, Stanford, CA 94305, USA
p1794
sS'37.428565:-122.1732277'
p1795
VNorth-South Axis, Stanford, CA 94305, USA
p1796
sS'37.4273124:-122.1711027'
p1797
VEscondido Mall, Stanford, CA 94305, USA
p1798
sS'37.420885:-122.1699259'
p1799
V675 Lomita Dr, Stanford, CA 94305, USA
p1800
sS'37.4209182:-122.170014'
p1801
V675 Lomita Dr, Stanford, CA 94305, USA
p1802
sS'37.4221962:-122.1707428'
p1803
V436 Mayfield Ave, Stanford, CA 94305, USA
p1804
sS'37.4286598:-122.1690907'
p1805
V450 Serra Mall, Stanford, CA 94305, USA
p1806
sS'37.4284642:-122.1754599'
p1807
VJerry Yang and Akiko Yamazaki Environment and Energy Building (Y2E2), 473 Via Ortega, Stanford, CA 94305, USA
p1808
sS'37.4232386:-122.1700287'
p1809
V635-699 Lagunita Dr, Stanford, CA 94305, USA
p1810
sS'37.42095:-122.1699742'
p1811
V675 Lomita Dr, Stanford, CA 94305, USA
p1812
sS'37.4208683:-122.1699214'
p1813
V675 Lomita Dr, Stanford, CA 94305, USA
p1814
sS'37.4381158:-122.1585553'
p1815
V855 El Camino Real, Palo Alto, CA 94301, USA
p1816
sS'37.4208216:-122.1697021'
p1817
V551-599 Lane W, Stanford, CA 94305, USA
p1818
sS'37.4444578:-122.1631414'
p1819
V171 University Ave, Palo Alto, CA 94301, USA
p1820
sS'37.443618:-122.1684271'
p1821
VPalo Alto, CA 94304, USA
p1822
sS'37.4281775:-122.172068'
p1823
VLomita Mall, Stanford, CA 94305, USA
p1824
sS'37.4246853:-122.1715813'
p1825
V486 Santa Teresa St, Stanford, CA 94305, USA
p1826
sS'37.438516:-122.1593469'
p1827
V75, 855 El Camino Real, Palo Alto, CA 94301, USA
p1828
sS'37.4210072:-122.1698355'
p1829
V675 Lomita Dr, Stanford, CA 94305, USA
p1830
sS'37.4472399:-122.1604497'
p1831
V403 University Ave, Palo Alto, CA 94301, USA
p1832
sS'37.4420817:-122.1592604'
p1833
V174-198 Homer Ave, Palo Alto, CA 94301, USA
p1834
sS'37.420845:-122.1698558'
p1835
V675 Lomita Dr, Stanford, CA 94305, USA
p1836
sS'37.4281316:-122.1712456'
p1837
VLomita Mall, Stanford, CA 94305, USA
p1838
sS'37.4217789:-122.1683372'
p1839
V567 Mayfield Ave, Stanford, CA 94305, USA
p1840
sS'37.4210208:-122.1702724'
p1841
V675 Lomita Dr, Stanford, CA 94305, USA
p1842
sS'37.4281743:-122.1631276'
p1843
V635 Serra St, Stanford, CA 94305, USA
p1844
sS'37.4208379:-122.1696294'
p1845
V551-599 Lane W, Stanford, CA 94305, USA
p1846
sS'37.4208554:-122.1701523'
p1847
V675 Lomita Dr, Stanford, CA 94305, USA
p1848
sS'37.4209613:-122.1698629'
p1849
V675 Lomita Dr, Stanford, CA 94305, USA
p1850
sS'37.4096492:-122.1227341'
p1851
V4214 El Camino Real, Palo Alto, CA 94306, USA
p1852
sS'37.4533851:-122.1838798'
p1853
V638-646 Maloney St, Menlo Park, CA 94025, USA
p1854
sS'37.4303684:-122.1711622'
p1855
V376 Lomita Dr, Stanford, CA 94305, USA
p1856
sS'37.4137427:-122.1254226'
p1857
V4127 El Camino Real, Palo Alto, CA 94306, USA
p1858
sS'37.4208655:-122.169976'
p1859
V675 Lomita Dr, Stanford, CA 94305, USA
p1860
sS'37.4202948:-122.1673817'
p1861
V588-592 Mayfield Ave, Stanford, CA 94305, USA
p1862
sS'37.4388256:-122.1587935'
p1863
V855 El Camino Real, Palo Alto, CA 94301, USA
p1864
sS'37.4374344:-122.2029688'
p1865
V1851-1899 Valparaiso Ave, West Menlo Park, CA 94025, USA
p1866
sS'37.426207:-122.1768056'
p1867
VVia Ortega Dr, Stanford, CA 94305, USA
p1868
sS'37.4249108:-122.1687732'
p1869
V519 Lasuen Mall, Stanford, CA 94305, USA
p1870
sS'37.4207987:-122.1703829'
p1871
V675 Lomita Dr, Stanford, CA 94305, USA
p1872
sS'37.7822854:-122.4323289'
p1873
V1597 Ellis St, San Francisco, CA 94115, USA
p1874
sS'37.4259824:-122.1691112'
p1875
V368-412 Lasuen Mall, Stanford, CA 94305, USA
p1876
sS'37.4376927:-122.2044029'
p1877
V1470-1490 Franks Ln, West Menlo Park, CA 94025, USA
p1878
sS'37.4435322:-122.1620358'
p1879
V163 Hamilton Ave, Palo Alto, CA 94301, USA
p1880
sS'37.4210527:-122.1700796'
p1881
V675 Lomita Dr, Stanford, CA 94305, USA
p1882
sS'37.4375996:-122.2042622'
p1883
V1460-1470 Franks Ln, West Menlo Park, CA 94025, USA
p1884
sS'37.4209255:-122.1699244'
p1885
V675 Lomita Dr, Stanford, CA 94305, USA
p1886
sS'37.4374696:-122.203901'
p1887
V1420-1430 Franks Ln, West Menlo Park, CA 94025, USA
p1888
sS'37.4440876:-122.1634133'
p1889
V498 High St, Palo Alto, CA 94301, USA
p1890
sS'37.4268847:-122.1712881'
p1891
VWomen's Restroom, Stanford, CA 94305, USA
p1892
sS'37.4208236:-122.1700543'
p1893
V675 Lomita Dr, Stanford, CA 94305, USA
p1894
sS'37.4208378:-122.1700547'
p1895
V675 Lomita Dr, Stanford, CA 94305, USA
p1896
sS'37.4284428:-122.1755612'
p1897
VJerry Yang and Akiko Yamazaki Environment and Energy Building (Y2E2), 473 Via Ortega, Stanford, CA 94305, USA
p1898
sS'37.4241184:-122.1673306'
p1899
VCrown Quadrangle, 559 Nathan Abbott Way, Stanford, CA 94305, USA
p1900
sS'37.4209311:-122.1700241'
p1901
V675 Lomita Dr, Stanford, CA 94305, USA
p1902
sS'37.4377872:-122.2043742'
p1903
V1470 Franks Ln, Menlo Park, CA 94025, USA
p1904
sS'37.4259451:-122.1925221'
p1905
V2183 Santa Cruz Ave, Menlo Park, CA 94025, USA
p1906
sS'37.4383541:-122.15956'
p1907
VBuilding 2, 75, 855 El Camino Real, Palo Alto, CA 94301, USA
p1908
sS'37.4209517:-122.1695644'
p1909
V551-599 Lane W, Stanford, CA 94305, USA
p1910
sS'37.4271623:-122.1711278'
p1911
VWomen's Restroom, Stanford, CA 94305, USA
p1912
sS'37.4485174:-122.2311607'
p1913
V2105-2139 Alameda de las Pulgas, Redwood City, CA 94061, USA
p1914
sS'37.4209355:-122.1699525'
p1915
V675 Lomita Dr, Stanford, CA 94305, USA
p1916
sS'37.4212162:-122.1693271'
p1917
V551-599 Lane W, Stanford, CA 94305, USA
p1918
sS'37.453088:-122.1822589'
p1919
V1029 CA-82, Menlo Park, CA 94025, USA
p1920
sS'37.427712:-122.1764073'
p1921
V401-499 Via Ortega, Stanford, CA 94305, USA
p1922
sS'37.4244486:-122.1703425'
p1923
V459 Lagunita Dr, Stanford, CA 94305, USA
p1924
sS'37.4249415:-122.1706936'
p1925
V524 Duena St, Stanford, CA 94305, USA
p1926
sS'37.7879068:-122.408365'
p1927
V337 Powell St, San Francisco, CA 94102, USA
p1928
sS'37.420818:-122.1700662'
p1929
V675 Lomita Dr, Stanford, CA 94305, USA
p1930
sS'37.4209458:-122.1699343'
p1931
V675 Lomita Dr, Stanford, CA 94305, USA
p1932
sS'37.4208907:-122.1698804'
p1933
V675 Lomita Dr, Stanford, CA 94305, USA
p1934
sS'37.4278845:-122.1719007'
p1935
VLomita Mall, Stanford, CA 94305, USA
p1936
sS'37.4245215:-122.1704417'
p1937
V459 Lagunita Dr, Stanford, CA 94305, USA
p1938
sS'37.4380558:-122.1584159'
p1939
V15-43 Embarcadero Rd, Palo Alto, CA 94301, USA
p1940
sS'37.4244614:-122.1705699'
p1941
V459 Lagunita Dr, Stanford, CA 94305, USA
p1942
sS'37.4200932:-122.1671796'
p1943
V588-592 Mayfield Ave, Stanford, CA 94305, USA
p1944
sS'37.4379482:-122.1584884'
p1945
V15-43 Embarcadero Rd, Palo Alto, CA 94301, USA
p1946
sS'37.4261929:-122.1669831'
p1947
VSulair Coffee Kiosk, 571 Escondido Mall, Stanford, CA 94305, USA
p1948
sS'37.4240386:-122.1971793'
p1949
V325m Sharon Park Dr, Menlo Park, CA 94025, USA
p1950
sS'37.4282294:-122.1667147'
p1951
V551 Serra Mall, Stanford, CA 94305, USA
p1952
sS'37.4377141:-122.2045401'
p1953
V1471-1499 Franks Ln, West Menlo Park, CA 94025, USA
p1954
sS'37.437633:-122.204387'
p1955
V1461-1471 Franks Ln, West Menlo Park, CA 94025, USA
p1956
sS'37.4210198:-122.1700602'
p1957
V675 Lomita Dr, Stanford, CA 94305, USA
p1958
sS'37.425043:-122.1694095'
p1959
V329-333 Lasuen Mall, Stanford, CA 94305, USA
p1960
sS'37.424597:-122.1705537'
p1961
V459 Lagunita Dr, Stanford, CA 94305, USA
p1962
sS'37.4208823:-122.1700123'
p1963
V675 Lomita Dr, Stanford, CA 94305, USA
p1964
sS'37.7695795:-122.4494509'
p1965
V1645 Haight St, San Francisco, CA 94117, USA
p1966
sS'37.4246207:-122.1705522'
p1967
V459 Lagunita Dr, Stanford, CA 94305, USA
p1968
sS'37.4208004:-122.1700586'
p1969
V675 Lomita Dr, Stanford, CA 94305, USA
p1970
sS'37.4209248:-122.1699029'
p1971
V675 Lomita Dr, Stanford, CA 94305, USA
p1972
sS'37.4217294:-122.1686739'
p1973
V564 Mayfield Ave, Stanford, CA 94305, USA
p1974
sS'37.4444008:-122.1724955'
p1975
V352 Stanford Shopping Center, Palo Alto, CA 94304, USA
p1976
sS'37.4290902:-122.1728893'
p1977
VWilliam R. Hewlett Teaching Center, 370 Serra Mall, Stanford, CA 94305, USA
p1978
sS'37.4430399:-122.1697071'
p1979
VPear Ln, Palo Alto, CA 94304, USA
p1980
sS'37.422732:-122.1702165'
p1981
V500 Mayfield Ave, Stanford, CA 94305, USA
p1982
sS'37.4208308:-122.17006'
p1983
V675 Lomita Dr, Stanford, CA 94305, USA
p1984
sS'37.4284485:-122.171246'
p1985
V380 Serra Mall, Stanford, CA 94305, USA
p1986
sS'37.4361584:-122.2009025'
p1987
V1304 Orange Ave, Menlo Park, CA 94025, USA
p1988
sS'37.4248237:-122.1904017'
p1989
V103-109 Junipero Serra Blvd, Stanford, CA 94305, USA
p1990
sS'37.4217235:-122.1685713'
p1991
V567 Mayfield Ave, Stanford, CA 94305, USA
p1992
sS'37.4289683:-122.1727201'
p1993
VWilliam R. Hewlett Teaching Center, 370 Serra Mall, Stanford, CA 94305, USA
p1994
sS'37.4208251:-122.1693611'
p1995
V551-599 Lane W, Stanford, CA 94305, USA
p1996
sS'37.4473972:-122.1592007'
p1997
V457 Hamilton Ave, Palo Alto, CA 94301, USA
p1998
sS'37.4208183:-122.1699119'
p1999
V675 Lomita Dr, Stanford, CA 94305, USA
p2000
sS'37.4342429:-122.1606844'
p2001
VStanford, CA 94305, USA
p2002
sS'37.4210496:-122.1699825'
p2003
V675 Lomita Dr, Stanford, CA 94305, USA
p2004
sS'37.4198051:-122.1740223'
p2005
V1115 Campus Drive, Stanford, CA 94305, USA
p2006
sS'37.4208444:-122.1698639'
p2007
V675 Lomita Dr, Stanford, CA 94305, USA
p2008
sS'37.4208398:-122.1699248'
p2009
V675 Lomita Dr, Stanford, CA 94305, USA
p2010
sS'37.4215672:-122.1694858'
p2011
V501-549 Lane W, Stanford, CA 94305, USA
p2012
sS'37.4236611:-122.1971417'
p2013
V325 Sharon Park Dr, Menlo Park, CA 94025, USA
p2014
sS'37.4209039:-122.1699408'
p2015
V675 Lomita Dr, Stanford, CA 94305, USA
p2016
sS'37.4209339:-122.1699475'
p2017
V675 Lomita Dr, Stanford, CA 94305, USA
p2018
sS'37.4207253:-122.1693868'
p2019
V548-598 Lane W, Stanford, CA 94305, USA
p2020
sS'37.4214729:-122.1703717'
p2021
V675 Lomita Dr, Stanford, CA 94305, USA
p2022
sS'37.453428:-122.1826207'
p2023
V1090 CA-82, Menlo Park, CA 94025, USA
p2024
sS'37.4207863:-122.1698208'
p2025
V675 Lomita Dr, Stanford, CA 94305, USA
p2026
sS'37.4239412:-122.1709798'
p2027
VTresidder Memorial Union, 459 Lagunita Dr, Stanford, CA 94305, USA
p2028
sS'37.4444476:-122.1622771'
p2029
V501 Emerson St, Palo Alto, CA 94301, USA
p2030
sS'37.4209521:-122.1689106'
p2031
V701-745 Campus Drive, Stanford, CA 94305, USA
p2032
sS'37.4287598:-122.1631021'
p2033
VZambrano Hall, 641 Knight Way, Stanford, CA 94305, USA
p2034
sS'37.4208656:-122.1700497'
p2035
V675 Lomita Dr, Stanford, CA 94305, USA
p2036
sS'37.426389:-122.1702014'
p2037
V590 Escondido Mall, Stanford, CA 94305, USA
p2038
sS'37.4211419:-122.1701848'
p2039
V675 Lomita Dr, Stanford, CA 94305, USA
p2040
sS'37.4441213:-122.1633271'
p2041
V150 University Ave, Palo Alto, CA 94301, USA
p2042
sS'37.4209416:-122.1698828'
p2043
V675 Lomita Dr, Stanford, CA 94305, USA
p2044
sS'37.420922:-122.1700674'
p2045
V675 Lomita Dr, Stanford, CA 94305, USA
p2046
sS'37.4247581:-122.170413'
p2047
V524 Lasuen Mall, Stanford, CA 94305, USA
p2048
sS'37.4216655:-122.1700034'
p2049
V675 Lomita Dr, Stanford, CA 94305, USA
p2050
sS'37.4306116:-122.171229'
p2051
V376 Lomita Dr, Stanford, CA 94305, USA
p2052
sS'37.4378471:-122.2044793'
p2053
V1490 Franks Ln, Menlo Park, CA 94025, USA
p2054
sS'37.4461259:-122.158871'
p2055
V618-640 Waverley St, Palo Alto, CA 94301, USA
p2056
sS'37.4212079:-122.1702089'
p2057
V675 Lomita Dr, Stanford, CA 94305, USA
p2058
sS'37.4207728:-122.1699458'
p2059
V675 Lomita Dr, Stanford, CA 94305, USA
p2060
sS'37.420939:-122.1699286'
p2061
V675 Lomita Dr, Stanford, CA 94305, USA
p2062
sS'37.4209054:-122.1700572'
p2063
V675 Lomita Dr, Stanford, CA 94305, USA
p2064
sS'37.424975:-122.1703455'
p2065
V520 Lasuen Mall, Stanford, CA 94305, USA
p2066
sS'37.4209465:-122.1690823'
p2067
V551-599 Lane W, Stanford, CA 94305, USA
p2068
sS'37.4209154:-122.1700135'
p2069
V675 Lomita Dr, Stanford, CA 94305, USA
p2070
sS'37.420818:-122.1700576'
p2071
V675 Lomita Dr, Stanford, CA 94305, USA
p2072
sS'37.4208813:-122.169999'
p2073
V675 Lomita Dr, Stanford, CA 94305, USA
p2074
sS'37.4245847:-122.1884344'
p2075
V115-149 Junipero Serra Blvd, Stanford, CA 94305, USA
p2076
sS'37.4208615:-122.1700264'
p2077
V675 Lomita Dr, Stanford, CA 94305, USA
p2078
sS'37.4208285:-122.1700801'
p2079
V675 Lomita Dr, Stanford, CA 94305, USA
p2080
sS'37.5940431:-122.3649153'
p2081
V1333 Old Bayshore Hwy, Burlingame, CA 94010, USA
p2082
sS'37.4210078:-122.1692828'
p2083
V551-599 Lane W, Stanford, CA 94305, USA
p2084
sS'37.4423238:-122.1707128'
p2085
V664 Orchard Lane, Palo Alto, CA 94304, USA
p2086
sS'37.4208239:-122.1699879'
p2087
V675 Lomita Dr, Stanford, CA 94305, USA
p2088
sS'37.4299685:-122.1730436'
p2089
VGates Computer Science, 353 Serra Mall, Stanford, CA 94305, USA
p2090
sS'37.4208414:-122.1700489'
p2091
V675 Lomita Dr, Stanford, CA 94305, USA
p2092
sS'37.4208911:-122.1698258'
p2093
V675 Lomita Dr, Stanford, CA 94305, USA
p2094
sS'37.4272751:-122.169415'
p2095
V526 Lasuen Mall, Stanford, CA 94305, USA
p2096
sS'37.4443825:-122.1705951'
p2097
V126-136 Stanford Dr, Palo Alto, CA 94304, USA
p2098
sS'37.4378169:-122.2045037'
p2099
V1490-1498 Franks Ln, West Menlo Park, CA 94025, USA
p2100
sS'37.7693893:-122.4495086'
p2101
V14a Belvedere St, San Francisco, CA 94117, USA
p2102
sS'37.4378274:-122.2043957'
p2103
V1490 Franks Ln, Menlo Park, CA 94025, USA
p2104
sS'37.7873598:-122.4087784'
p2105
V348-366 Geary St, San Francisco, CA 94102, USA
p2106
sS'37.4240734:-122.1705942'
p2107
V459 Lagunita Dr, Stanford, CA 94305, USA
p2108
sS'37.4208933:-122.1699388'
p2109
V675 Lomita Dr, Stanford, CA 94305, USA
p2110
sS'37.4234894:-122.1701364'
p2111
V617-633 Lagunita Dr, Stanford, CA 94305, USA
p2112
sS'37.4211077:-122.1699422'
p2113
V675 Lomita Dr, Stanford, CA 94305, USA
p2114
sS'37.4273841:-122.1723429'
p2115
VLomita Mall, Stanford, CA 94305, USA
p2116
sS'37.4280532:-122.1721662'
p2117
VLomita Mall, Stanford, CA 94305, USA
p2118
sS'37.4209549:-122.1699182'
p2119
V675 Lomita Dr, Stanford, CA 94305, USA
p2120
sS'37.4216232:-122.169406'
p2121
V501-549 Lane W, Stanford, CA 94305, USA
p2122
sS'37.4452523:-122.162136'
p2123
V502 Ramona St, Palo Alto, CA 94301, USA
p2124
sS'37.4239327:-122.1958311'
p2125
V125 Sharon Park Dr, Menlo Park, CA 94025, USA
p2126
sS'37.452016:-122.1909183'
p2127
V92 Valparaiso Ave, Menlo Park, CA 94027, USA
p2128
sS'37.4295482:-122.1710988'
p2129
V393 Serra Mall, Stanford, CA 94305, USA
p2130
sS'37.4597207:-122.136251'
p2131
V1775 E Bayshore Rd, East Palo Alto, CA 94303, USA
p2132
sS'37.7842599:-122.4271067'
p2133
V66 Cleary Ct, San Francisco, CA 94109, USA
p2134
sS'37.4235582:-122.1703194'
p2135
V617-633 Lagunita Dr, Stanford, CA 94305, USA
p2136
sS'37.4251938:-122.1709165'
p2137
V536-572 Duena St, Stanford, CA 94305, USA
p2138
sS'37.4256471:-122.1600831'
p2139
V752 Campus Drive, Stanford, CA 94305, USA
p2140
sS'37.4183319:-122.133063'
p2141
V3636-3656 El Camino Real, Palo Alto, CA 94306, USA
p2142
sS'37.4209106:-122.1700154'
p2143
V675 Lomita Dr, Stanford, CA 94305, USA
p2144
sS'37.4377869:-122.2045525'
p2145
V1490-1498 Franks Ln, West Menlo Park, CA 94025, USA
p2146
sS'37.4237117:-122.1703147'
p2147
V617 Lagunita Dr, Stanford, CA 94305, USA
p2148
sS'37.4215048:-122.1692029'
p2149
V551-599 Lane W, Stanford, CA 94305, USA
p2150
sS'37.4240781:-122.1697763'
p2151
V471 Lagunita Dr, Stanford, CA 94305, USA
p2152
sS'37.4249632:-122.1693709'
p2153
V519 Lasuen Mall, Stanford, CA 94305, USA
p2154
sS'37.4842241:-122.2266243'
p2155
V1099 Middlefield Rd, Redwood City, CA 94063, USA
p2156
sS'37.4209075:-122.1700089'
p2157
V675 Lomita Dr, Stanford, CA 94305, USA
p2158
sS'37.420892:-122.1698961'
p2159
V675 Lomita Dr, Stanford, CA 94305, USA
p2160
sS'37.4376491:-122.204389'
p2161
V1461-1471 Franks Ln, West Menlo Park, CA 94025, USA
p2162
sS'37.4387777:-122.1580155'
p2163
V104, 855 El Camino Real, Palo Alto, CA 94301, USA
p2164
sS'37.4299564:-122.1732931'
p2165
VGates Computer Science, 353 Serra Mall, Stanford, CA 94305, USA
p2166
sS'37.437812:-122.204545'
p2167
V1490-1498 Franks Ln, West Menlo Park, CA 94025, USA
p2168
sS'37.4208986:-122.1699401'
p2169
V675 Lomita Dr, Stanford, CA 94305, USA
p2170
sS'37.4241101:-122.1710962'
p2171
V459 Lagunita Dr, Stanford, CA 94305, USA
p2172
sS'37.5940034:-122.3649106'
p2173
V1333 Old Bayshore Hwy, Burlingame, CA 94010, USA
p2174
sS'37.4229425:-122.1652036'
p2175
VCampus Drive, Stanford, CA 94305, USA
p2176
sS'37.4204981:-122.170682'
p2177
V675 Lomita Dr, Stanford, CA 94305, USA
p2178
sS'37.4292923:-122.1721826'
p2179
V390 Serra Mall, Stanford, CA 94305, USA
p2180
sS'37.4463198:-122.1598233'
p2181
V550 Waverley St, Palo Alto, CA 94301, USA
p2182
sS'37.4443601:-122.1708262'
p2183
VPalo Alto, CA 94304, USA
p2184
sS'37.4473164:-122.1596825'
p2185
V432 University Ave, Palo Alto, CA 94301, USA
p2186
sS'37.4209171:-122.1696524'
p2187
V551-599 Lane W, Stanford, CA 94305, USA
p2188
sS'37.4385731:-122.1594312'
p2189
V75, 855 El Camino Real, Palo Alto, CA 94301, USA
p2190
sS'37.4209266:-122.1699593'
p2191
V675 Lomita Dr, Stanford, CA 94305, USA
p2192
sS'37.4290316:-122.1666281'
p2193
V551 Serra Mall, Stanford, CA 94305, USA
p2194
sS'37.4307632:-122.1540636'
p2195
V1600 El Camino Real, Palo Alto, CA 94306, USA
p2196
sS'37.4526499:-122.1827725'
p2197
V1036 Doyle St, Menlo Park, CA 94025, USA
p2198
sS'37.4210642:-122.1699668'
p2199
V675 Lomita Dr, Stanford, CA 94305, USA
p2200
sS'37.4211957:-122.1701784'
p2201
V675 Lomita Dr, Stanford, CA 94305, USA
p2202
sS'37.4273774:-122.171176'
p2203
VLomita Mall, Stanford, CA 94305, USA
p2204
sS'37.41971:-122.1742536'
p2205
VNarnia and EBF Rear Access Rd., Stanford, CA 94305, USA
p2206
sS'37.4209012:-122.1697021'
p2207
V551-599 Lane W, Stanford, CA 94305, USA
p2208
sS'37.4303688:-122.1710242'
p2209
V376 Lomita Dr, Stanford, CA 94305, USA
p2210
sS'37.4290625:-122.1728798'
p2211
VWilliam R. Hewlett Teaching Center, 370 Serra Mall, Stanford, CA 94305, USA
p2212
sS'37.4208534:-122.1699296'
p2213
V675 Lomita Dr, Stanford, CA 94305, USA
p2214
sS'37.4208644:-122.1699142'
p2215
V675 Lomita Dr, Stanford, CA 94305, USA
p2216
sS'37.4212804:-122.1700212'
p2217
V675 Lomita Dr, Stanford, CA 94305, USA
p2218
sS'37.7839326:-122.4269948'
p2219
V1-45 Cleary Ct, San Francisco, CA 94109, USA
p2220
sS'37.4223077:-122.1700464'
p2221
V500 Lane W, Stanford, CA 94305, USA
p2222
sS'37.4205975:-122.1696035'
p2223
V401-675 Campus Drive, Stanford, CA 94305, USA
p2224
sS'37.4290306:-122.1724525'
p2225
VSequoia Hall, Stanford, CA 94305, USA
p2226
sS'37.4377634:-122.2044599'
p2227
V1470-1490 Franks Ln, West Menlo Park, CA 94025, USA
p2228
sS'37.437293:-122.2032068'
p2229
V1890 Valparaiso Ave, West Menlo Park, CA 94025, USA
p2230
sS'37.4208618:-122.1704719'
p2231
V675 Lomita Dr, Stanford, CA 94305, USA
p2232
sS'37.4273809:-122.1708607'
p2233
V450 Serra Mall, Stanford, CA 94305, USA
p2234
sS'37.4341893:-122.1605461'
p2235
VStanford, CA 94305, USA
p2236
sS'37.4392512:-122.2014148'
p2237
V1777-1799 Valparaiso Ave, Menlo Park, CA 94025, USA
p2238
sS'37.4359945:-122.209831'
p2239
V3115 Alameda de las Pulgas, West Menlo Park, CA 94025, USA
p2240
sS'37.444942:-122.12378'
p2241
VOregon Expy, Palo Alto, CA 94303, USA
p2242
sS'37.4206038:-122.1690133'
p2243
V1018 Campus Drive, Stanford, CA 94305, USA
p2244
sS'37.4308202:-122.1542356'
p2245
V1600 El Camino Real, Palo Alto, CA 94306, USA
p2246
sS'37.5474231:-122.3111592'
p2247
V2000-2098 Wyoming Way, San Mateo, CA 94403, USA
p2248
sS'37.427436:-122.1711274'
p2249
VLomita Mall, Stanford, CA 94305, USA
p2250
sS'37.427474:-122.1871426'
p2251
VFremont Rd, Stanford, CA 94305, USA
p2252
sS'37.4289916:-122.1728153'
p2253
VWilliam R. Hewlett Teaching Center, 370 Serra Mall, Stanford, CA 94305, USA
p2254
sS'37.4208279:-122.1699759'
p2255
V675 Lomita Dr, Stanford, CA 94305, USA
p2256
sS'37.421081:-122.1690066'
p2257
V747-799 Campus Drive, Stanford, CA 94305, USA
p2258
sS'37.4206327:-122.1694161'
p2259
V677-699 Campus Drive, Stanford, CA 94305, USA
p2260
sS'37.4209635:-122.1698723'
p2261
V675 Lomita Dr, Stanford, CA 94305, USA
p2262
sS'37.4298974:-122.1730925'
p2263
VGates Computer Science, 353 Serra Mall, Stanford, CA 94305, USA
p2264
sS'37.4208139:-122.1696898'
p2265
V551-599 Lane W, Stanford, CA 94305, USA
p2266
sS'37.4306368:-122.1712633'
p2267
V376 Lomita Dr, Stanford, CA 94305, USA
p2268
sS'37.420906:-122.169405'
p2269
V551-599 Lane W, Stanford, CA 94305, USA
p2270
sS'37.4383766:-122.159544'
p2271
VBuilding 2, 75, 855 El Camino Real, Palo Alto, CA 94301, USA
p2272
sS'37.4205135:-122.0932811'
p2273
V1113 N Rengstorff Ave, Mountain View, CA 94043, USA
p2274
sS'37.4250306:-122.1705998'
p2275
V520 Lasuen Mall, Stanford, CA 94305, USA
p2276
sS'37.4377294:-122.2044915'
p2277
V1470-1490 Franks Ln, West Menlo Park, CA 94025, USA
p2278
sS'37.437732:-122.2043392'
p2279
V1470-1490 Franks Ln, West Menlo Park, CA 94025, USA
p2280
sS'37.4384376:-122.1590259'
p2281
V855 El Camino Real, Palo Alto, CA 94301, USA
p2282
sS'37.4242021:-122.1708379'
p2283
VTresidder Memorial Union, 459 Lagunita Dr, Stanford, CA 94305, USA
p2284
sS'37.429073:-122.1670275'
p2285
V518 Memorial Way, Stanford, CA 94305, USA
p2286
sS'37.424039:-122.1708308'
p2287
VTresidder Memorial Union, 459 Lagunita Dr, Stanford, CA 94305, USA
p2288
sS'37.7673406:-122.4047414'
p2289
V161-175 Vermont St, San Francisco, CA 94103, USA
p2290
sS'37.4226767:-122.1702756'
p2291
V500 Mayfield Ave, Stanford, CA 94305, USA
p2292
sS'37.4210802:-122.1692285'
p2293
V551-599 Lane W, Stanford, CA 94305, USA
p2294
sS'37.4209787:-122.1699441'
p2295
V675 Lomita Dr, Stanford, CA 94305, USA
p2296
sS'37.4209445:-122.1700266'
p2297
V675 Lomita Dr, Stanford, CA 94305, USA
p2298
sS'37.430607:-122.1712218'
p2299
V376 Lomita Dr, Stanford, CA 94305, USA
p2300
sS'37.4282301:-122.1737784'
p2301
VNorth-South Axis, Stanford, CA 94305, USA
p2302
sS'37.4377461:-122.2043603'
p2303
V1470-1490 Franks Ln, West Menlo Park, CA 94025, USA
p2304
sS'37.4278062:-122.1754731'
p2305
VS Service Rd, Stanford, CA 94305, USA
p2306
sS'37.4209237:-122.1698197'
p2307
V675 Lomita Dr, Stanford, CA 94305, USA
p2308
sS'37.4333998:-122.1555567'
p2309
VBetty Meltzer Memorial Hwy, Palo Alto, CA 94306, USA
p2310
sS'37.4290402:-122.172417'
p2311
VSequoia Hall, Stanford, CA 94305, USA
p2312
sS'37.4270551:-122.1704483'
p2313
VWomen's Restroom, Stanford, CA 94305, USA
p2314
sS'37.4192732:-122.1689036'
p2315
VCooksey (Synergy), 550 San Juan St, Stanford, CA 94305, USA
p2316
sS'37.4286565:-122.1957422'
p2317
V2110 Santa Cruz Ave, West Menlo Park, CA 94025, USA
p2318
sS'37.4483119:-122.1739749'
p2319
V145 El Camino Real, Menlo Park, CA 94025, USA
p2320
sS'37.4208927:-122.1695131'
p2321
V551-599 Lane W, Stanford, CA 94305, USA
p2322
sS'37.4378129:-122.159054'
p2323
V43-57 Embarcadero Rd, Palo Alto, CA 94301, USA
p2324
sS'37.4213992:-122.1685699'
p2325
V747-799 Campus Drive, Stanford, CA 94305, USA
p2326
sS'37.4280556:-122.1490569'
p2327
V450-498 Stanford Ave, Palo Alto, CA 94306, USA
p2328
sS'37.4210802:-122.1696741'
p2329
V548-598 Lane W, Stanford, CA 94305, USA
p2330
sS'37.4209818:-122.1702461'
p2331
V675 Lomita Dr, Stanford, CA 94305, USA
p2332
sS'37.4319193:-122.182714'
p2333
VParking Structure 5, 360 Oak Rd, Stanford, CA 94305, USA
p2334
sS'37.4209077:-122.1699535'
p2335
V675 Lomita Dr, Stanford, CA 94305, USA
p2336
sS'37.421017:-122.1699933'
p2337
V675 Lomita Dr, Stanford, CA 94305, USA
p2338
sS'37.428219:-122.1695944'
p2339
V450 Serra Mall, Stanford, CA 94305, USA
p2340
sS'37.4255188:-122.1671258'
p2341
V530 Escondido Mall, Stanford, CA 94305, USA
p2342
sS'37.4209699:-122.170035'
p2343
V675 Lomita Dr, Stanford, CA 94305, USA
p2344
sS'37.4201584:-122.1718403'
p2345
V1047 Campus Drive, Stanford, CA 94305, USA
p2346
sS'37.4207473:-122.169866'
p2347
V675 Lomita Dr, Stanford, CA 94305, USA
p2348
sS'37.4304739:-122.1546582'
p2349
V691 Pampas Ln, Stanford, CA 94305, USA
p2350
sS'37.4211382:-122.1700296'
p2351
V675 Lomita Dr, Stanford, CA 94305, USA
p2352
sS'37.4209636:-122.1699547'
p2353
V675 Lomita Dr, Stanford, CA 94305, USA
p2354
sS'37.4208746:-122.1699801'
p2355
V675 Lomita Dr, Stanford, CA 94305, USA
p2356
sS'37.4385532:-122.1593305'
p2357
V75, 855 El Camino Real, Palo Alto, CA 94301, USA
p2358
sS'37.4208451:-122.1700036'
p2359
V675 Lomita Dr, Stanford, CA 94305, USA
p2360
sS'37.4378093:-122.2043982'
p2361
V1490 Franks Ln, Menlo Park, CA 94025, USA
p2362
sS'37.4371315:-122.1602502'
p2363
VGalvez St, Palo Alto, CA 94301, USA
p2364
sS'37.4211036:-122.1626375'
p2365
V585 Cowell Ln, Stanford, CA 94305, USA
p2366
sS'37.4209176:-122.1698961'
p2367
V675 Lomita Dr, Stanford, CA 94305, USA
p2368
sS'37.4342888:-122.1607044'
p2369
VStanford, CA 94305, USA
p2370
sS'37.4209049:-122.1700103'
p2371
V675 Lomita Dr, Stanford, CA 94305, USA
p2372
sS'37.4209919:-122.1700919'
p2373
V675 Lomita Dr, Stanford, CA 94305, USA
p2374
sS'37.4389821:-122.1586353'
p2375
V855 El Camino Real, Palo Alto, CA 94301, USA
p2376
sS'37.4308821:-122.1541799'
p2377
V1600 El Camino Real, Palo Alto, CA 94306, USA
p2378
sS'37.4208184:-122.1700035'
p2379
V675 Lomita Dr, Stanford, CA 94305, USA
p2380
sS'37.4208613:-122.1700408'
p2381
V675 Lomita Dr, Stanford, CA 94305, USA
p2382
sS'37.4599728:-122.1359022'
p2383
V1771 E Bayshore Rd, East Palo Alto, CA 94303, USA
p2384
sS'37.423325:-122.1709573'
p2385
V540 Lagunita Dr, Stanford, CA 94305, USA
p2386
sS'37.4210101:-122.1705093'
p2387
V675 Lomita Dr, Stanford, CA 94305, USA
p2388
sS'37.4207669:-122.1695459'
p2389
V548 Lane W, Stanford, CA 94305, USA
p2390
sS'37.4306917:-122.1539911'
p2391
V1600 El Camino Real, Palo Alto, CA 94306, USA
p2392
sS'37.4210067:-122.1693864'
p2393
V551-599 Lane W, Stanford, CA 94305, USA
p2394
sS'37.7881644:-122.4084901'
p2395
V355 Powell St, San Francisco, CA 94102, USA
p2396
sS'37.4209976:-122.1700562'
p2397
V675 Lomita Dr, Stanford, CA 94305, USA
p2398
sS'37.4209754:-122.1698768'
p2399
V675 Lomita Dr, Stanford, CA 94305, USA
p2400
sS'37.4298722:-122.1730578'
p2401
VN - South Axis, Stanford, CA 94305, USA
p2402
sS'37.4308752:-122.1708232'
p2403
V376 Lomita Dr, Stanford, CA 94305, USA
p2404
sS'37.420918:-122.1700109'
p2405
V675 Lomita Dr, Stanford, CA 94305, USA
p2406
sS'37.4209146:-122.1700213'
p2407
V675 Lomita Dr, Stanford, CA 94305, USA
p2408
sS'37.4305339:-122.1712155'
p2409
V376 Lomita Dr, Stanford, CA 94305, USA
p2410
sS'37.7876993:-122.4083996'
p2411
V331 Powell St, San Francisco, CA 94102, USA
p2412
sS'37.4307506:-122.1711994'
p2413
V376 Lomita Dr, Stanford, CA 94305, USA
p2414
sS'37.3958738:-122.1017445'
p2415
V2098 CA-82, Mountain View, CA 94040, USA
p2416
sS'37.5474311:-122.3111865'
p2417
V2000-2098 Wyoming Way, San Mateo, CA 94403, USA
p2418
sS'37.4303576:-122.1711828'
p2419
V376 Lomita Dr, Stanford, CA 94305, USA
p2420
sS'37.4208382:-122.1700237'
p2421
V675 Lomita Dr, Stanford, CA 94305, USA
p2422
sS'37.4301072:-122.1712383'
p2423
V376 Lomita Dr, Stanford, CA 94305, USA
p2424
sS'37.4305569:-122.1713036'
p2425
V376 Lomita Dr, Stanford, CA 94305, USA
p2426
sS'37.4215995:-122.1703207'
p2427
V675 Lomita Dr, Stanford, CA 94305, USA
p2428
sS'37.4438383:-122.1678859'
p2429
V190-198 Betty Meltzer Memorial Hwy, Palo Alto, CA, USA
p2430
sS'37.4283261:-122.1749591'
p2431
VS Service Rd, Stanford, CA 94305, USA
p2432
sS'37.4208594:-122.1700337'
p2433
V675 Lomita Dr, Stanford, CA 94305, USA
p2434
sS'37.4259284:-122.1758915'
p2435
V373 Santa Teresa St, Stanford, CA 94305, USA
p2436
sS'37.4376892:-122.2046438'
p2437
V1901 Cam De Los Robles, Menlo Park, CA 94025, USA
p2438
sS'37.4207174:-122.1702983'
p2439
V675 Lomita Dr, Stanford, CA 94305, USA
p2440
sS'37.4210443:-122.1700671'
p2441
V675 Lomita Dr, Stanford, CA 94305, USA
p2442
sS'37.4208733:-122.1700103'
p2443
V675 Lomita Dr, Stanford, CA 94305, USA
p2444
sS'37.4208845:-122.1699051'
p2445
V675 Lomita Dr, Stanford, CA 94305, USA
p2446
sS'37.7881417:-122.4092025'
p2447
V427-455 Post St, San Francisco, CA 94102, USA
p2448
sS'37.4300809:-122.1386762'
p2449
VOregon Expy, Palo Alto, CA 94301, USA
p2450
sS'37.4231289:-122.170429'
p2451
V628 Lagunita Dr, Stanford, CA 94305, USA
p2452
sS'37.4208714:-122.169912'
p2453
V675 Lomita Dr, Stanford, CA 94305, USA
p2454
sS'37.4262146:-122.1927045'
p2455
V2183 Santa Cruz Ave, Menlo Park, CA 94025, USA
p2456
sS'37.7613431:-122.4316209'
p2457
V3944 18th St, San Francisco, CA 94114, USA
p2458
sS'37.4235638:-122.1968406'
p2459
V325 Sharon Park Dr, Menlo Park, CA 94025, USA
p2460
sS'37.420864:-122.1702969'
p2461
V675 Lomita Dr, Stanford, CA 94305, USA
p2462
sS'37.4438694:-122.1598686'
p2463
V673-699 Ramona St, Palo Alto, CA 94301, USA
p2464
sS'37.4211385:-122.169825'
p2465
V675 Lomita Dr, Stanford, CA 94305, USA
p2466
sS'37.4376478:-122.2041465'
p2467
V1440-1460 Franks Ln, West Menlo Park, CA 94025, USA
p2468
sS'37.4208792:-122.1699509'
p2469
V675 Lomita Dr, Stanford, CA 94305, USA
p2470
sS'37.4209158:-122.1699483'
p2471
V675 Lomita Dr, Stanford, CA 94305, USA
p2472
sS'37.4208818:-122.1700294'
p2473
V675 Lomita Dr, Stanford, CA 94305, USA
p2474
sS'37.4210624:-122.1700756'
p2475
V675 Lomita Dr, Stanford, CA 94305, USA
p2476
sS'37.4306029:-122.1539403'
p2477
V1600 El Camino Real, Palo Alto, CA 94306, USA
p2478
sS'37.4283035:-122.1606351'
p2479
V578 Campus Drive, Stanford, CA 94305, USA
p2480
sS'37.427319:-122.1711131'
p2481
VLomita Mall, Stanford, CA 94305, USA
p2482
sS'37.424793:-122.1726743'
p2483
V424 Santa Teresa St, Stanford, CA 94305, USA
p2484
sS'37.4244783:-122.1705545'
p2485
V459 Lagunita Dr, Stanford, CA 94305, USA
p2486
sS'37.4377731:-122.2043814'
p2487
V1470-1490 Franks Ln, West Menlo Park, CA 94025, USA
p2488
sS'37.4273417:-122.1710911'
p2489
VLomita Mall, Stanford, CA 94305, USA
p2490
sS'37.4436583:-122.1700081'
p2491
VPalo Alto, CA 94304, USA
p2492
sS'37.4207792:-122.170077'
p2493
V675 Lomita Dr, Stanford, CA 94305, USA
p2494
sS'37.4242556:-122.1703581'
p2495
V459 Lagunita Dr, Stanford, CA 94305, USA
p2496
sS'37.4305868:-122.1711842'
p2497
V376 Lomita Dr, Stanford, CA 94305, USA
p2498
sS'37.4351821:-122.1572801'
p2499
VBetty Meltzer Memorial Hwy, Palo Alto, CA 94306, USA
p2500
sS'37.4209583:-122.1696992'
p2501
V551-599 Lane W, Stanford, CA 94305, USA
p2502
sS'37.4235171:-122.1970941'
p2503
V325 Sharon Park Dr, Menlo Park, CA 94025, USA
p2504
sS'37.4208251:-122.1698414'
p2505
V675 Lomita Dr, Stanford, CA 94305, USA
p2506
sS'37.4208645:-122.170009'
p2507
V675 Lomita Dr, Stanford, CA 94305, USA
p2508
sS'37.4209017:-122.1699514'
p2509
V675 Lomita Dr, Stanford, CA 94305, USA
p2510
sS'37.4168186:-122.1300085'
p2511
V3909 Ventura Ave, Palo Alto, CA 94306, USA
p2512
sS'37.427237:-122.1695413'
p2513
V526 Lasuen Mall, Stanford, CA 94305, USA
p2514
sS'37.7842651:-122.4271465'
p2515
V66 Cleary Ct, San Francisco, CA 94109, USA
p2516
sS'37.4334652:-122.1974762'
p2517
V1975 Santa Cruz Ave, Menlo Park, CA 94025, USA
p2518
sS'37.4211415:-122.1701789'
p2519
V675 Lomita Dr, Stanford, CA 94305, USA
p2520
sS'37.4208638:-122.1699904'
p2521
V675 Lomita Dr, Stanford, CA 94305, USA
p2522
sS'37.4239672:-122.1706353'
p2523
V520 Lagunita Dr, Stanford, CA 94305, USA
p2524
sS'37.4284398:-122.1755222'
p2525
VJerry Yang and Akiko Yamazaki Environment and Energy Building (Y2E2), 473 Via Ortega, Stanford, CA 94305, USA
p2526
sS'37.4276586:-122.1762024'
p2527
V640-672 Panama St, Stanford, CA 94305, USA
p2528
sS'37.4242134:-122.1709843'
p2529
V459 Lagunita Dr, Stanford, CA 94305, USA
p2530
sS'37.4208946:-122.1699395'
p2531
V675 Lomita Dr, Stanford, CA 94305, USA
p2532
sS'37.4207262:-122.093269'
p2533
V1159 N Rengstorff Ave, Mountain View, CA 94043, USA
p2534
sS'37.4264139:-122.1672826'
p2535
V557 Escondido Mall, Stanford, CA 94305, USA
p2536
sS'37.4208778:-122.1697817'
p2537
V551-599 Lane W, Stanford, CA 94305, USA
p2538
sS'37.4264866:-122.1674013'
p2539
V557 Escondido Mall, Stanford, CA 94305, USA
p2540
sS'37.4205152:-122.1696239'
p2541
V401-675 Campus Drive, Stanford, CA 94305, USA
p2542
sS'37.4208475:-122.1698445'
p2543
V675 Lomita Dr, Stanford, CA 94305, USA
p2544
sS'37.4376295:-122.2041587'
p2545
V1440-1460 Franks Ln, West Menlo Park, CA 94025, USA
p2546
sS'37.4167748:-122.1303315'
p2547
V3886 El Camino Real, Palo Alto, CA 94306, USA
p2548
sS'37.4274373:-122.190281'
p2549
V2015-2037 Sand Hill Rd, Stanford, CA 94305, USA
p2550
sS'37.4289828:-122.1679474'
p2551
VLasuen St, Stanford, CA 94305, USA
p2552
sS'37.6165568:-122.3846871'
p2553
VDomestic Garage, San Francisco, CA 94128, USA
p2554
sS'37.4215377:-122.1711246'
p2555
V670 Lomita Dr, Palo Alto, CA 94305, USA
p2556
sS'37.420932:-122.1700728'
p2557
V675 Lomita Dr, Stanford, CA 94305, USA
p2558
sS'37.4262578:-122.1669494'
p2559
V571 Lasuen Mall, Stanford, CA 94305, USA
p2560
sS'37.4270489:-122.1674954'
p2561
V882-912 Crothers Way, Stanford, CA 94305, USA
p2562
sS'37.4297762:-122.1519109'
p2563
VSerra St, Palo Alto, CA 94306, USA
p2564
sS'37.4270372:-122.1697575'
p2565
VEscondido Rd, Palo Alto, CA 94305, USA
p2566
sS'37.4209802:-122.1696433'
p2567
V551-599 Lane W, Stanford, CA 94305, USA
p2568
sS'37.4209031:-122.1699967'
p2569
V675 Lomita Dr, Stanford, CA 94305, USA
p2570
sS'37.4378231:-122.2045576'
p2571
V1490-1498 Franks Ln, West Menlo Park, CA 94025, USA
p2572
sS'37.4008814:-122.1129226'
p2573
V4600 CA-82, Los Altos, CA 94022, USA
p2574
sS'37.4209471:-122.170057'
p2575
V675 Lomita Dr, Stanford, CA 94305, USA
p2576
sS'37.4519579:-122.1795789'
p2577
V744-798 El Camino Real, Menlo Park, CA 94025, USA
p2578
sS'37.4254199:-122.1709923'
p2579
V536-572 Duena St, Stanford, CA 94305, USA
p2580
sS'37.4379469:-122.2045452'
p2581
V1886 Cam De Los Robles, Menlo Park, CA 94025, USA
p2582
sS'37.4213757:-122.1700814'
p2583
V675 Lomita Dr, Stanford, CA 94305, USA
p2584
sS'37.4298124:-122.1731205'
p2585
V353 Serra Mall, Stanford, CA 94305, USA
p2586
sS'37.4209895:-122.1698055'
p2587
V548-598 Lane W, Stanford, CA 94305, USA
p2588
sS'37.4298459:-122.1733515'
p2589
V868-898 Serra Mall, Stanford, CA 94305, USA
p2590
sS'37.4340721:-122.1979473'
p2591
V1975 Santa Cruz Ave, Menlo Park, CA 94025, USA
p2592
sS'37.4212582:-122.1692576'
p2593
V551-599 Lane W, Stanford, CA 94305, USA
p2594
sS'37.4238978:-122.1704018'
p2595
V575-615 Lagunita Dr, Stanford, CA 94305, USA
p2596
sS'37.4208093:-122.1700977'
p2597
V675 Lomita Dr, Stanford, CA 94305, USA
p2598
sS'37.4214758:-122.1702173'
p2599
V675 Lomita Dr, Stanford, CA 94305, USA
p2600
sS'37.4242644:-122.1598147'
p2601
V320 Escondido Rd, Stanford, CA 94305, USA
p2602
sS'37.4208546:-122.1702211'
p2603
V675 Lomita Dr, Stanford, CA 94305, USA
p2604
sS'37.4207994:-122.1704617'
p2605
V675 Lomita Dr, Stanford, CA 94305, USA
p2606
sS'37.4248641:-122.1916179'
p2607
VSanta Cruz Ave, Stanford, CA 94305, USA
p2608
sS'37.4296148:-122.1725988'
p2609
V371 Serra Mall, Stanford, CA 94305, USA
p2610
sS'37.4209215:-122.1699831'
p2611
V675 Lomita Dr, Stanford, CA 94305, USA
p2612
sS'37.4209162:-122.1702506'
p2613
V675 Lomita Dr, Stanford, CA 94305, USA
p2614
sS'37.7886908:-122.4071501'
p2615
V300 Post St, San Francisco, CA 94108, USA
p2616
sS'37.4304488:-122.1627297'
p2617
V625 Campus Drive, Stanford, CA 94305, USA
p2618
sS'37.7842104:-122.4271143'
p2619
V66 Cleary Ct, San Francisco, CA 94109, USA
p2620
sS'37.4239272:-122.1705522'
p2621
V575-615 Lagunita Dr, Stanford, CA 94305, USA
p2622
sS'37.4224359:-122.1858291'
p2623
VPrivate Resid., 103 Junipero Serra Blvd, Stanford, CA 94305, USA
p2624
sS'37.4230825:-122.1698275'
p2625
V544 Lasuen Mall, Stanford, CA 94305, USA
p2626
sS'37.4217618:-122.1697599'
p2627
V500 Lane W, Stanford, CA 94305, USA
p2628
sS'37.4343535:-122.1981688'
p2629
V1930-1940 Santa Cruz Ave, Menlo Park, CA 94025, USA
p2630
sS'37.4193321:-122.1689327'
p2631
VCooksey (Synergy), 550 San Juan St, Stanford, CA 94305, USA
p2632
sS'37.4303266:-122.1709841'
p2633
V376 Lomita Dr, Stanford, CA 94305, USA
p2634
sS'37.4287543:-122.173588'
p2635
VNorth-South Axis, Stanford, CA 94305, USA
p2636
sS'37.4654959:-122.2064352'
p2637
V3401 CA-82, Atherton, CA 94027, USA
p2638
sS'37.4533699:-122.1822561'
p2639
V1010-1080 El Camino Real, Menlo Park, CA 94025, USA
p2640
sS'37.4208823:-122.1698596'
p2641
V675 Lomita Dr, Stanford, CA 94305, USA
p2642
sS'37.430593:-122.1711807'
p2643
V376 Lomita Dr, Stanford, CA 94305, USA
p2644
sS'37.420844:-122.1700168'
p2645
V675 Lomita Dr, Stanford, CA 94305, USA
p2646
sS'37.4251962:-122.1708698'
p2647
V536-572 Duena St, Stanford, CA 94305, USA
p2648
sS'37.4287014:-122.1694986'
p2649
V450 Serra Mall, Stanford, CA 94305, USA
p2650
sS'37.4306329:-122.17126'
p2651
V376 Lomita Dr, Stanford, CA 94305, USA
p2652
s.